; ModuleID = 'atomicrmw.bc'
source_filename = "llvm-link"
target datalayout = "e-m:e-i64:64-f80:128-n8:16:32:64-S128"
target triple = "x86_64-unknown-linux-gnu"

%union.pthread_mutex_t = type { %struct.__pthread_mutex_s }
%struct.__pthread_mutex_s = type { i32, i32, i32, i32, i32, i16, i16, %struct.__pthread_internal_list }
%struct.__pthread_internal_list = type { %struct.__pthread_internal_list*, %struct.__pthread_internal_list* }
%"class.std::__1::mersenne_twister_engine" = type { [624 x i64], i64 }
%struct._IO_FILE.38 = type { i32, i8*, i8*, i8*, i8*, i8*, i8*, i8*, i8*, i8*, i8*, i8*, %struct._IO_marker.37*, %struct._IO_FILE.38*, i32, i32, i64, i16, i8, [1 x i8], i8*, i64, i8*, i8*, i8*, i8*, i64, i32, [20 x i8] }
%struct._IO_marker.37 = type { %struct._IO_marker.37*, %struct._IO_FILE.38*, i32 }
%"struct.std::__1::__less" = type { i8 }
%struct.__mbstate_t.111 = type { i32, %union.anon.110 }
%union.anon.110 = type { i32 }
%"struct.std::__1::once_flag.112" = type { i64 }
%union.pthread_cond_t.199 = type { %struct.__pthread_cond_s.198 }
%struct.__pthread_cond_s.198 = type { %"struct.std::__1::once_flag.112", %"struct.std::__1::once_flag.112", [2 x i32], [2 x i32], i32, i32, [2 x i32] }
%"class.std::__1::locale.115" = type { %"class.std::__1::locale::__imp.114"* }
%"class.std::__1::locale::__imp.114" = type { %"class.std::__1::locale::facet.118", %"class.std::__1::vector", %"class.std::__1::basic_string.135", [8 x i8] }
%"class.std::__1::locale::facet.118" = type { %"class.std::__1::__shared_count.117" }
%"class.std::__1::__shared_count.117" = type { i32 (...)**, i64 }
%"class.std::__1::vector" = type { %"class.std::__1::__vector_base" }
%"class.std::__1::__vector_base" = type { %"class.std::__1::locale::facet.118"**, %"class.std::__1::locale::facet.118"**, %"class.std::__1::__compressed_pair.11" }
%"class.std::__1::__compressed_pair.11" = type { %"struct.std::__1::__compressed_pair_elem.12", [8 x i8], %"struct.std::__1::__compressed_pair_elem.13" }
%"struct.std::__1::__compressed_pair_elem.12" = type { %"class.std::__1::locale::facet.118"** }
%"struct.std::__1::__compressed_pair_elem.13" = type { %"class.std::__1::__sso_allocator" }
%"class.std::__1::__sso_allocator" = type { %"struct.std::__1::aligned_storage<224, 16>::type", i8, [15 x i8] }
%"struct.std::__1::aligned_storage<224, 16>::type" = type { [224 x i8] }
%"class.std::__1::basic_string.135" = type { %"class.std::__1::__compressed_pair.134" }
%"class.std::__1::__compressed_pair.134" = type { %"struct.std::__1::__compressed_pair_elem.133" }
%"struct.std::__1::__compressed_pair_elem.133" = type { %"struct.std::__1::basic_string<char, std::__1::char_traits<char>, std::__1::allocator<char> >::__rep.132" }
%"struct.std::__1::basic_string<char, std::__1::char_traits<char>, std::__1::allocator<char> >::__rep.132" = type { %union.anon.131 }
%union.anon.131 = type { %"struct.std::__1::basic_string<char, std::__1::char_traits<char>, std::__1::allocator<char> >::__long.130" }
%"struct.std::__1::basic_string<char, std::__1::char_traits<char>, std::__1::allocator<char> >::__long.130" = type { i64, i64, i8* }
%"class.std::runtime_error.156" = type { %"class.std::exception.153", %"class.std::__1::__libcpp_refstring.155" }
%"class.std::exception.153" = type { i32 (...)** }
%"class.std::__1::__libcpp_refstring.155" = type { i8* }
%"class.std::__1::basic_ostream.120" = type { i32 (...)**, %"class.std::__1::basic_ios.base.121" }
%"class.std::__1::basic_ios.base.121" = type <{ %"class.std::__1::ios_base.119", %"class.std::__1::basic_ostream.120"*, i32 }>
%"class.std::__1::ios_base.119" = type { i32 (...)**, i32, i64, i64, i32, i32, i8*, i8*, void (i32, %"class.std::__1::ios_base.119"*, i32)**, i32*, i64, i64, i64*, i64, i64, i8**, i64, i64 }
%"class.std::__1::basic_ostream.2" = type { i32 (...)**, %"class.std::__1::basic_ios.base.3" }
%"class.std::__1::basic_ios.base.3" = type <{ %"class.std::__1::ios_base.119", %"class.std::__1::basic_ostream.2"*, i32 }>
%"class.std::__1::basic_istream.122" = type { i32 (...)**, i64, %"class.std::__1::basic_ios.base.121" }
%"class.std::__1::basic_istream.0" = type { i32 (...)**, i64, %"class.std::__1::basic_ios.base.3" }
%"class.std::__1::__stdinbuf" = type <{ %"class.std::__1::basic_streambuf.116", %struct._IO_FILE.38*, %"class.std::__1::codecvt"*, %struct.__mbstate_t.111*, i32, i32, i8, i8, [6 x i8] }>
%"class.std::__1::basic_streambuf.116" = type { i32 (...)**, %"class.std::__1::locale.115", i8*, i8*, i8*, i8*, i8*, i8* }
%"class.std::__1::codecvt" = type { %"class.std::__1::locale::facet.118" }
%"class.std::__1::__stdinbuf.6" = type <{ %"class.std::__1::basic_streambuf.7", %struct._IO_FILE.38*, %"class.std::__1::codecvt.8"*, %struct.__mbstate_t.111*, i32, i32, i8, i8, [6 x i8] }>
%"class.std::__1::basic_streambuf.7" = type { i32 (...)**, %"class.std::__1::locale.115", i32*, i32*, i32*, i32*, i32*, i32* }
%"class.std::__1::codecvt.8" = type { %"class.std::__1::locale::facet.118", %struct.__locale_struct* }
%struct.__locale_struct = type { [13 x %struct.__locale_data*], i16*, i32*, i32*, [13 x i8*] }
%struct.__locale_data = type opaque
%"class.std::__1::__stdoutbuf" = type <{ %"class.std::__1::basic_streambuf.116", %struct._IO_FILE.38*, %"class.std::__1::codecvt"*, %struct.__mbstate_t.111*, i8, [7 x i8] }>
%"class.std::__1::__stdoutbuf.10" = type <{ %"class.std::__1::basic_streambuf.7", %struct._IO_FILE.38*, %"class.std::__1::codecvt.8"*, %struct.__mbstate_t.111*, i8, [7 x i8] }>
%"class.std::__1::basic_ios.123" = type <{ %"class.std::__1::ios_base.119", %"class.std::__1::basic_ostream.120"*, i32, [4 x i8] }>
%"class.std::__1::basic_ios.1" = type <{ %"class.std::__1::ios_base.119", %"class.std::__1::basic_ostream.2"*, i32, [4 x i8] }>
%"class.std::__1::locale::id.113" = type <{ %"struct.std::__1::once_flag.112", i32, [4 x i8] }>
%"class.std::__1::(anonymous namespace)::__fake_bind" = type { %"class.std::__1::locale::id.113"*, { i64, i64 } }
%"class.std::bad_cast.154" = type { %"class.std::exception.153" }
%"class.std::__1::tuple.168" = type { %"struct.std::__1::__tuple_impl.167" }
%"struct.std::__1::__tuple_impl.167" = type { %"class.std::__1::__tuple_leaf.166" }
%"class.std::__1::__tuple_leaf.166" = type { %"class.std::__1::(anonymous namespace)::__fake_bind"* }
%"class.std::__1::__call_once_param" = type { %"class.std::__1::tuple.168"* }
%"union.std::experimental::fundamentals_v1::pmr::(anonymous namespace)::ResourceInitHelper" = type { %struct.anon }
%struct.anon = type { %"class.std::bad_cast.154", %"class.std::bad_cast.154" }
%"struct.std::__1::__refstring_imp::(anonymous namespace)::_Rep_base" = type { i64, i64, i32 }

$_ZNSt3__16__sortIRNS_6__lessIccEEPcEEvT0_S5_T_ = comdat any

$_ZNKSt3__16__lessIccEclERKcS3_ = comdat any

$_ZNSt3__14swapIcEENS_9enable_ifIXaasr21is_move_constructibleIT_EE5valuesr18is_move_assignableIS2_EE5valueEvE4typeERS2_S5_ = comdat any

$_ZNSt3__17__sort3IRNS_6__lessIccEEPcEEjT0_S5_S5_T_ = comdat any

$_ZNSt3__17__sort4IRNS_6__lessIccEEPcEEjT0_S5_S5_S5_T_ = comdat any

$_ZNSt3__17__sort5IRNS_6__lessIccEEPcEEjT0_S5_S5_S5_S5_T_ = comdat any

$_ZNSt3__118__insertion_sort_3IRNS_6__lessIccEEPcEEvT0_S5_T_ = comdat any

$_ZNSt3__127__insertion_sort_incompleteIRNS_6__lessIccEEPcEEbT0_S5_T_ = comdat any

$_ZNSt3__14moveIRcEEONS_16remove_referenceIT_E4typeEOS3_ = comdat any

$_ZNSt3__16__sortIRNS_6__lessIwwEEPwEEvT0_S5_T_ = comdat any

$_ZNKSt3__16__lessIwwEclERKwS3_ = comdat any

$_ZNSt3__14swapIwEENS_9enable_ifIXaasr21is_move_constructibleIT_EE5valuesr18is_move_assignableIS2_EE5valueEvE4typeERS2_S5_ = comdat any

$_ZNSt3__17__sort3IRNS_6__lessIwwEEPwEEjT0_S5_S5_T_ = comdat any

$_ZNSt3__17__sort4IRNS_6__lessIwwEEPwEEjT0_S5_S5_S5_T_ = comdat any

$_ZNSt3__17__sort5IRNS_6__lessIwwEEPwEEjT0_S5_S5_S5_S5_T_ = comdat any

$_ZNSt3__118__insertion_sort_3IRNS_6__lessIwwEEPwEEvT0_S5_T_ = comdat any

$_ZNSt3__127__insertion_sort_incompleteIRNS_6__lessIwwEEPwEEbT0_S5_T_ = comdat any

$_ZNSt3__14moveIRwEEONS_16remove_referenceIT_E4typeEOS3_ = comdat any

$_ZNSt3__16__sortIRNS_6__lessIaaEEPaEEvT0_S5_T_ = comdat any

$_ZNKSt3__16__lessIaaEclERKaS3_ = comdat any

$_ZNSt3__14swapIaEENS_9enable_ifIXaasr21is_move_constructibleIT_EE5valuesr18is_move_assignableIS2_EE5valueEvE4typeERS2_S5_ = comdat any

$_ZNSt3__17__sort3IRNS_6__lessIaaEEPaEEjT0_S5_S5_T_ = comdat any

$_ZNSt3__17__sort4IRNS_6__lessIaaEEPaEEjT0_S5_S5_S5_T_ = comdat any

$_ZNSt3__17__sort5IRNS_6__lessIaaEEPaEEjT0_S5_S5_S5_S5_T_ = comdat any

$_ZNSt3__118__insertion_sort_3IRNS_6__lessIaaEEPaEEvT0_S5_T_ = comdat any

$_ZNSt3__127__insertion_sort_incompleteIRNS_6__lessIaaEEPaEEbT0_S5_T_ = comdat any

$_ZNSt3__14moveIRaEEONS_16remove_referenceIT_E4typeEOS3_ = comdat any

$_ZNSt3__16__sortIRNS_6__lessIhhEEPhEEvT0_S5_T_ = comdat any

$_ZNKSt3__16__lessIhhEclERKhS3_ = comdat any

$_ZNSt3__14swapIhEENS_9enable_ifIXaasr21is_move_constructibleIT_EE5valuesr18is_move_assignableIS2_EE5valueEvE4typeERS2_S5_ = comdat any

$_ZNSt3__17__sort3IRNS_6__lessIhhEEPhEEjT0_S5_S5_T_ = comdat any

$_ZNSt3__17__sort4IRNS_6__lessIhhEEPhEEjT0_S5_S5_S5_T_ = comdat any

$_ZNSt3__17__sort5IRNS_6__lessIhhEEPhEEjT0_S5_S5_S5_S5_T_ = comdat any

$_ZNSt3__118__insertion_sort_3IRNS_6__lessIhhEEPhEEvT0_S5_T_ = comdat any

$_ZNSt3__127__insertion_sort_incompleteIRNS_6__lessIhhEEPhEEbT0_S5_T_ = comdat any

$_ZNSt3__14moveIRhEEONS_16remove_referenceIT_E4typeEOS3_ = comdat any

$_ZNSt3__16__sortIRNS_6__lessIssEEPsEEvT0_S5_T_ = comdat any

$_ZNKSt3__16__lessIssEclERKsS3_ = comdat any

$_ZNSt3__14swapIsEENS_9enable_ifIXaasr21is_move_constructibleIT_EE5valuesr18is_move_assignableIS2_EE5valueEvE4typeERS2_S5_ = comdat any

$_ZNSt3__17__sort3IRNS_6__lessIssEEPsEEjT0_S5_S5_T_ = comdat any

$_ZNSt3__17__sort4IRNS_6__lessIssEEPsEEjT0_S5_S5_S5_T_ = comdat any

$_ZNSt3__17__sort5IRNS_6__lessIssEEPsEEjT0_S5_S5_S5_S5_T_ = comdat any

$_ZNSt3__118__insertion_sort_3IRNS_6__lessIssEEPsEEvT0_S5_T_ = comdat any

$_ZNSt3__127__insertion_sort_incompleteIRNS_6__lessIssEEPsEEbT0_S5_T_ = comdat any

$_ZNSt3__14moveIRsEEONS_16remove_referenceIT_E4typeEOS3_ = comdat any

$_ZNSt3__16__sortIRNS_6__lessIttEEPtEEvT0_S5_T_ = comdat any

$_ZNKSt3__16__lessIttEclERKtS3_ = comdat any

$_ZNSt3__14swapItEENS_9enable_ifIXaasr21is_move_constructibleIT_EE5valuesr18is_move_assignableIS2_EE5valueEvE4typeERS2_S5_ = comdat any

$_ZNSt3__17__sort3IRNS_6__lessIttEEPtEEjT0_S5_S5_T_ = comdat any

$_ZNSt3__17__sort4IRNS_6__lessIttEEPtEEjT0_S5_S5_S5_T_ = comdat any

$_ZNSt3__17__sort5IRNS_6__lessIttEEPtEEjT0_S5_S5_S5_S5_T_ = comdat any

$_ZNSt3__118__insertion_sort_3IRNS_6__lessIttEEPtEEvT0_S5_T_ = comdat any

$_ZNSt3__127__insertion_sort_incompleteIRNS_6__lessIttEEPtEEbT0_S5_T_ = comdat any

$_ZNSt3__14moveIRtEEONS_16remove_referenceIT_E4typeEOS3_ = comdat any

$_ZNSt3__16__sortIRNS_6__lessIiiEEPiEEvT0_S5_T_ = comdat any

$_ZNKSt3__16__lessIiiEclERKiS3_ = comdat any

$_ZNSt3__14swapIiEENS_9enable_ifIXaasr21is_move_constructibleIT_EE5valuesr18is_move_assignableIS2_EE5valueEvE4typeERS2_S5_ = comdat any

$_ZNSt3__17__sort3IRNS_6__lessIiiEEPiEEjT0_S5_S5_T_ = comdat any

$_ZNSt3__17__sort4IRNS_6__lessIiiEEPiEEjT0_S5_S5_S5_T_ = comdat any

$_ZNSt3__17__sort5IRNS_6__lessIiiEEPiEEjT0_S5_S5_S5_S5_T_ = comdat any

$_ZNSt3__118__insertion_sort_3IRNS_6__lessIiiEEPiEEvT0_S5_T_ = comdat any

$_ZNSt3__127__insertion_sort_incompleteIRNS_6__lessIiiEEPiEEbT0_S5_T_ = comdat any

$_ZNSt3__14moveIRiEEONS_16remove_referenceIT_E4typeEOS3_ = comdat any

$_ZNSt3__16__sortIRNS_6__lessIjjEEPjEEvT0_S5_T_ = comdat any

$_ZNKSt3__16__lessIjjEclERKjS3_ = comdat any

$_ZNSt3__14swapIjEENS_9enable_ifIXaasr21is_move_constructibleIT_EE5valuesr18is_move_assignableIS2_EE5valueEvE4typeERS2_S5_ = comdat any

$_ZNSt3__17__sort3IRNS_6__lessIjjEEPjEEjT0_S5_S5_T_ = comdat any

$_ZNSt3__17__sort4IRNS_6__lessIjjEEPjEEjT0_S5_S5_S5_T_ = comdat any

$_ZNSt3__17__sort5IRNS_6__lessIjjEEPjEEjT0_S5_S5_S5_S5_T_ = comdat any

$_ZNSt3__118__insertion_sort_3IRNS_6__lessIjjEEPjEEvT0_S5_T_ = comdat any

$_ZNSt3__127__insertion_sort_incompleteIRNS_6__lessIjjEEPjEEbT0_S5_T_ = comdat any

$_ZNSt3__14moveIRjEEONS_16remove_referenceIT_E4typeEOS3_ = comdat any

$_ZNSt3__16__sortIRNS_6__lessIllEEPlEEvT0_S5_T_ = comdat any

$_ZNKSt3__16__lessIllEclERKlS3_ = comdat any

$_ZNSt3__14swapIlEENS_9enable_ifIXaasr21is_move_constructibleIT_EE5valuesr18is_move_assignableIS2_EE5valueEvE4typeERS2_S5_ = comdat any

$_ZNSt3__17__sort3IRNS_6__lessIllEEPlEEjT0_S5_S5_T_ = comdat any

$_ZNSt3__17__sort4IRNS_6__lessIllEEPlEEjT0_S5_S5_S5_T_ = comdat any

$_ZNSt3__17__sort5IRNS_6__lessIllEEPlEEjT0_S5_S5_S5_S5_T_ = comdat any

$_ZNSt3__118__insertion_sort_3IRNS_6__lessIllEEPlEEvT0_S5_T_ = comdat any

$_ZNSt3__127__insertion_sort_incompleteIRNS_6__lessIllEEPlEEbT0_S5_T_ = comdat any

$_ZNSt3__14moveIRlEEONS_16remove_referenceIT_E4typeEOS3_ = comdat any

$_ZNSt3__16__sortIRNS_6__lessImmEEPmEEvT0_S5_T_ = comdat any

$_ZNKSt3__16__lessImmEclERKmS3_ = comdat any

$_ZNSt3__14swapImEENS_9enable_ifIXaasr21is_move_constructibleIT_EE5valuesr18is_move_assignableIS2_EE5valueEvE4typeERS2_S5_ = comdat any

$_ZNSt3__17__sort3IRNS_6__lessImmEEPmEEjT0_S5_S5_T_ = comdat any

$_ZNSt3__17__sort4IRNS_6__lessImmEEPmEEjT0_S5_S5_S5_T_ = comdat any

$_ZNSt3__17__sort5IRNS_6__lessImmEEPmEEjT0_S5_S5_S5_S5_T_ = comdat any

$_ZNSt3__118__insertion_sort_3IRNS_6__lessImmEEPmEEvT0_S5_T_ = comdat any

$_ZNSt3__127__insertion_sort_incompleteIRNS_6__lessImmEEPmEEbT0_S5_T_ = comdat any

$_ZNSt3__14moveIRmEEONS_16remove_referenceIT_E4typeEOS3_ = comdat any

$_ZNSt3__16__sortIRNS_6__lessIxxEEPxEEvT0_S5_T_ = comdat any

$_ZNKSt3__16__lessIxxEclERKxS3_ = comdat any

$_ZNSt3__14swapIxEENS_9enable_ifIXaasr21is_move_constructibleIT_EE5valuesr18is_move_assignableIS2_EE5valueEvE4typeERS2_S5_ = comdat any

$_ZNSt3__17__sort3IRNS_6__lessIxxEEPxEEjT0_S5_S5_T_ = comdat any

$_ZNSt3__17__sort4IRNS_6__lessIxxEEPxEEjT0_S5_S5_S5_T_ = comdat any

$_ZNSt3__17__sort5IRNS_6__lessIxxEEPxEEjT0_S5_S5_S5_S5_T_ = comdat any

$_ZNSt3__118__insertion_sort_3IRNS_6__lessIxxEEPxEEvT0_S5_T_ = comdat any

$_ZNSt3__127__insertion_sort_incompleteIRNS_6__lessIxxEEPxEEbT0_S5_T_ = comdat any

$_ZNSt3__14moveIRxEEONS_16remove_referenceIT_E4typeEOS3_ = comdat any

$_ZNSt3__16__sortIRNS_6__lessIyyEEPyEEvT0_S5_T_ = comdat any

$_ZNKSt3__16__lessIyyEclERKyS3_ = comdat any

$_ZNSt3__14swapIyEENS_9enable_ifIXaasr21is_move_constructibleIT_EE5valuesr18is_move_assignableIS2_EE5valueEvE4typeERS2_S5_ = comdat any

$_ZNSt3__17__sort3IRNS_6__lessIyyEEPyEEjT0_S5_S5_T_ = comdat any

$_ZNSt3__17__sort4IRNS_6__lessIyyEEPyEEjT0_S5_S5_S5_T_ = comdat any

$_ZNSt3__17__sort5IRNS_6__lessIyyEEPyEEjT0_S5_S5_S5_S5_T_ = comdat any

$_ZNSt3__118__insertion_sort_3IRNS_6__lessIyyEEPyEEvT0_S5_T_ = comdat any

$_ZNSt3__127__insertion_sort_incompleteIRNS_6__lessIyyEEPyEEbT0_S5_T_ = comdat any

$_ZNSt3__14moveIRyEEONS_16remove_referenceIT_E4typeEOS3_ = comdat any

$_ZNSt3__16__sortIRNS_6__lessIffEEPfEEvT0_S5_T_ = comdat any

$_ZNKSt3__16__lessIffEclERKfS3_ = comdat any

$_ZNSt3__14swapIfEENS_9enable_ifIXaasr21is_move_constructibleIT_EE5valuesr18is_move_assignableIS2_EE5valueEvE4typeERS2_S5_ = comdat any

$_ZNSt3__17__sort3IRNS_6__lessIffEEPfEEjT0_S5_S5_T_ = comdat any

$_ZNSt3__17__sort4IRNS_6__lessIffEEPfEEjT0_S5_S5_S5_T_ = comdat any

$_ZNSt3__17__sort5IRNS_6__lessIffEEPfEEjT0_S5_S5_S5_S5_T_ = comdat any

$_ZNSt3__118__insertion_sort_3IRNS_6__lessIffEEPfEEvT0_S5_T_ = comdat any

$_ZNSt3__127__insertion_sort_incompleteIRNS_6__lessIffEEPfEEbT0_S5_T_ = comdat any

$_ZNSt3__14moveIRfEEONS_16remove_referenceIT_E4typeEOS3_ = comdat any

$_ZNSt3__16__sortIRNS_6__lessIddEEPdEEvT0_S5_T_ = comdat any

$_ZNKSt3__16__lessIddEclERKdS3_ = comdat any

$_ZNSt3__14swapIdEENS_9enable_ifIXaasr21is_move_constructibleIT_EE5valuesr18is_move_assignableIS2_EE5valueEvE4typeERS2_S5_ = comdat any

$_ZNSt3__17__sort3IRNS_6__lessIddEEPdEEjT0_S5_S5_T_ = comdat any

$_ZNSt3__17__sort4IRNS_6__lessIddEEPdEEjT0_S5_S5_S5_T_ = comdat any

$_ZNSt3__17__sort5IRNS_6__lessIddEEPdEEjT0_S5_S5_S5_S5_T_ = comdat any

$_ZNSt3__118__insertion_sort_3IRNS_6__lessIddEEPdEEvT0_S5_T_ = comdat any

$_ZNSt3__127__insertion_sort_incompleteIRNS_6__lessIddEEPdEEbT0_S5_T_ = comdat any

$_ZNSt3__14moveIRdEEONS_16remove_referenceIT_E4typeEOS3_ = comdat any

$_ZNSt3__16__sortIRNS_6__lessIeeEEPeEEvT0_S5_T_ = comdat any

$_ZNKSt3__16__lessIeeEclERKeS3_ = comdat any

$_ZNSt3__14swapIeEENS_9enable_ifIXaasr21is_move_constructibleIT_EE5valuesr18is_move_assignableIS2_EE5valueEvE4typeERS2_S5_ = comdat any

$_ZNSt3__17__sort3IRNS_6__lessIeeEEPeEEjT0_S5_S5_T_ = comdat any

$_ZNSt3__17__sort4IRNS_6__lessIeeEEPeEEjT0_S5_S5_S5_T_ = comdat any

$_ZNSt3__17__sort5IRNS_6__lessIeeEEPeEEjT0_S5_S5_S5_S5_T_ = comdat any

$_ZNSt3__118__insertion_sort_3IRNS_6__lessIeeEEPeEEvT0_S5_T_ = comdat any

$_ZNSt3__127__insertion_sort_incompleteIRNS_6__lessIeeEEPeEEbT0_S5_T_ = comdat any

$_ZNSt3__14moveIReEEONS_16remove_referenceIT_E4typeEOS3_ = comdat any

$_ZNSt3__119__libcpp_mutex_lockEP15pthread_mutex_t = comdat any

$_ZNSt3__121__libcpp_mutex_unlockEP15pthread_mutex_t = comdat any

$__clang_call_terminate = comdat any

$_ZNSt3__123mersenne_twister_engineImLm32ELm624ELm397ELm31ELm2567483615ELm11ELm4294967295ELm7ELm2636928640ELm15ELm4022730752ELm18ELm1812433253EEC2Em = comdat any

$_ZNSt3__123mersenne_twister_engineImLm32ELm624ELm397ELm31ELm2567483615ELm11ELm4294967295ELm7ELm2636928640ELm15ELm4022730752ELm18ELm1812433253EEclEv = comdat any

$_ZNSt3__123mersenne_twister_engineImLm32ELm624ELm397ELm31ELm2567483615ELm11ELm4294967295ELm7ELm2636928640ELm15ELm4022730752ELm18ELm1812433253EE8__rshiftILm1EEENS_9enable_ifIXltT_L_ZNS1_3_DtEEEmE4typeEm = comdat any

$_ZNSt3__123mersenne_twister_engineImLm32ELm624ELm397ELm31ELm2567483615ELm11ELm4294967295ELm7ELm2636928640ELm15ELm4022730752ELm18ELm1812433253EE8__rshiftILm11EEENS_9enable_ifIXltT_L_ZNS1_3_DtEEEmE4typeEm = comdat any

$_ZNSt3__123mersenne_twister_engineImLm32ELm624ELm397ELm31ELm2567483615ELm11ELm4294967295ELm7ELm2636928640ELm15ELm4022730752ELm18ELm1812433253EE8__lshiftILm7EEENS_9enable_ifIXltT_Lm32EEmE4typeEm = comdat any

$_ZNSt3__123mersenne_twister_engineImLm32ELm624ELm397ELm31ELm2567483615ELm11ELm4294967295ELm7ELm2636928640ELm15ELm4022730752ELm18ELm1812433253EE8__lshiftILm15EEENS_9enable_ifIXltT_Lm32EEmE4typeEm = comdat any

$_ZNSt3__123mersenne_twister_engineImLm32ELm624ELm397ELm31ELm2567483615ELm11ELm4294967295ELm7ELm2636928640ELm15ELm4022730752ELm18ELm1812433253EE8__rshiftILm18EEENS_9enable_ifIXltT_L_ZNS1_3_DtEEEmE4typeEm = comdat any

$_ZNSt3__123mersenne_twister_engineImLm32ELm624ELm397ELm31ELm2567483615ELm11ELm4294967295ELm7ELm2636928640ELm15ELm4022730752ELm18ELm1812433253EE4seedEm = comdat any

$_ZNSt3__123mersenne_twister_engineImLm32ELm624ELm397ELm31ELm2567483615ELm11ELm4294967295ELm7ELm2636928640ELm15ELm4022730752ELm18ELm1812433253EE8__rshiftILm30EEENS_9enable_ifIXltT_L_ZNS1_3_DtEEEmE4typeEm = comdat any

$_ZNSt3__110__stdinbufIcEC2EP8_IO_FILEP11__mbstate_t = comdat any

$_ZNSt3__110__stdinbufIwEC2EP8_IO_FILEP11__mbstate_t = comdat any

$_ZNSt3__111__stdoutbufIcEC2EP8_IO_FILEP11__mbstate_t = comdat any

$_ZNSt3__111__stdoutbufIwEC2EP8_IO_FILEP11__mbstate_t = comdat any

$_ZNSt3__17unitbufERNS_8ios_baseE = comdat any

$_ZNSt3__18ios_base4setfEj = comdat any

$_ZNKSt3__18ios_base5rdbufEv = comdat any

$_ZNSt3__111char_traitsIwE3eofEv = comdat any

$_ZNSt3__18ios_baseC2Ev = comdat any

$_ZNSt3__19use_facetINS_7codecvtIwc11__mbstate_tEEEERKT_RKNS_6localeE = comdat any

$_ZNKSt3__17codecvtIwc11__mbstate_tE13always_noconvEv = comdat any

$_ZNSt3__111__stdoutbufIwED2Ev = comdat any

$_ZNSt3__111__stdoutbufIwED0Ev = comdat any

$_ZNSt3__111__stdoutbufIwE5imbueERKNS_6localeE = comdat any

$_ZNSt3__111__stdoutbufIwE4syncEv = comdat any

$_ZNSt3__111__stdoutbufIwE6xsputnEPKwl = comdat any

$_ZNSt3__111__stdoutbufIwE8overflowEj = comdat any

$_ZNSt3__111char_traitsIwE11eq_int_typeEjj = comdat any

$_ZNSt3__111char_traitsIwE12to_char_typeEj = comdat any

$_ZNKSt3__17codecvtIwc11__mbstate_tE3outERS1_PKwS5_RS5_PcS7_RS7_ = comdat any

$_ZNSt3__111char_traitsIwE7not_eofEj = comdat any

$_ZNSt3__111char_traitsIwE11to_int_typeEw = comdat any

$_ZNKSt3__17codecvtIwc11__mbstate_tE7unshiftERS1_PcS4_RS4_ = comdat any

$_ZNSt3__111char_traitsIcE3eofEv = comdat any

$_ZNSt3__19use_facetINS_7codecvtIcc11__mbstate_tEEEERKT_RKNS_6localeE = comdat any

$_ZNKSt3__17codecvtIcc11__mbstate_tE13always_noconvEv = comdat any

$_ZNSt3__111__stdoutbufIcED2Ev = comdat any

$_ZNSt3__111__stdoutbufIcED0Ev = comdat any

$_ZNSt3__111__stdoutbufIcE5imbueERKNS_6localeE = comdat any

$_ZNSt3__111__stdoutbufIcE4syncEv = comdat any

$_ZNSt3__111__stdoutbufIcE6xsputnEPKcl = comdat any

$_ZNSt3__111__stdoutbufIcE8overflowEi = comdat any

$_ZNSt3__111char_traitsIcE11eq_int_typeEii = comdat any

$_ZNSt3__111char_traitsIcE12to_char_typeEi = comdat any

$_ZNKSt3__17codecvtIcc11__mbstate_tE3outERS1_PKcS5_RS5_PcS7_RS7_ = comdat any

$_ZNSt3__111char_traitsIcE7not_eofEi = comdat any

$_ZNSt3__111char_traitsIcE11to_int_typeEc = comdat any

$_ZNKSt3__17codecvtIcc11__mbstate_tE7unshiftERS1_PcS4_RS4_ = comdat any

$_ZNSt3__110__stdinbufIwED2Ev = comdat any

$_ZNSt3__110__stdinbufIwED0Ev = comdat any

$_ZNSt3__110__stdinbufIwE5imbueERKNS_6localeE = comdat any

$_ZNSt3__110__stdinbufIwE9underflowEv = comdat any

$_ZNSt3__110__stdinbufIwE5uflowEv = comdat any

$_ZNSt3__110__stdinbufIwE9pbackfailEj = comdat any

$_ZNSt3__110__stdinbufIwE9__getcharEb = comdat any

$_ZNSt3__13maxIiEERKT_S3_S3_ = comdat any

$_ZNKSt3__17codecvtIwc11__mbstate_tE2inERS1_PKcS5_RS5_PwS7_RS7_ = comdat any

$_ZNSt3__13maxIiNS_6__lessIiiEEEERKT_S5_S5_T0_ = comdat any

$_ZNKSt3__17codecvtIwc11__mbstate_tE8encodingEv = comdat any

$_ZNSt3__110__stdinbufIcED2Ev = comdat any

$_ZNSt3__110__stdinbufIcED0Ev = comdat any

$_ZNSt3__110__stdinbufIcE5imbueERKNS_6localeE = comdat any

$_ZNSt3__110__stdinbufIcE9underflowEv = comdat any

$_ZNSt3__110__stdinbufIcE5uflowEv = comdat any

$_ZNSt3__110__stdinbufIcE9pbackfailEi = comdat any

$_ZNSt3__110__stdinbufIcE9__getcharEb = comdat any

$_ZNKSt3__17codecvtIcc11__mbstate_tE2inERS1_PKcS5_RS5_PcS7_RS7_ = comdat any

$_ZNKSt3__17codecvtIcc11__mbstate_tE8encodingEv = comdat any

$_ZNKSt3__16locale5__imp9has_facetEl = comdat any

$_ZNKSt3__16vectorIPNS_6locale5facetENS_15__sso_allocatorIS3_Lm28EEEEixEm = comdat any

$_ZNKSt3__16vectorIPNS_6locale5facetENS_15__sso_allocatorIS3_Lm28EEEE4sizeEv = comdat any

$_ZNSt3__121__libcpp_acquire_loadImEET_PKS1_ = comdat any

$_ZNSt3__114__shared_count12__add_sharedEv = comdat any

$_ZNSt3__134__libcpp_atomic_refcount_incrementIlEET_RS1_ = comdat any

$_ZNSt3__114__shared_count16__release_sharedEv = comdat any

$_ZNSt3__134__libcpp_atomic_refcount_decrementIlEET_RS1_ = comdat any

$_ZNSt12experimental15fundamentals_v13pmr15memory_resourceD2Ev = comdat any

$_ZNSt12experimental15fundamentals_v13pmr26__null_memory_resource_impD0Ev = comdat any

$_ZNSt12experimental15fundamentals_v13pmr26__null_memory_resource_imp11do_allocateEmm = comdat any

$_ZNSt12experimental15fundamentals_v13pmr26__null_memory_resource_imp13do_deallocateEPvmm = comdat any

$_ZNKSt12experimental15fundamentals_v13pmr26__null_memory_resource_imp11do_is_equalERKNS1_15memory_resourceE = comdat any

$_ZNSt12experimental15fundamentals_v13pmr32__new_delete_memory_resource_impD0Ev = comdat any

$_ZNSt12experimental15fundamentals_v13pmr32__new_delete_memory_resource_imp11do_allocateEmm = comdat any

$_ZNSt12experimental15fundamentals_v13pmr32__new_delete_memory_resource_imp13do_deallocateEPvmm = comdat any

$_ZNKSt12experimental15fundamentals_v13pmr32__new_delete_memory_resource_imp11do_is_equalERKNS1_15memory_resourceE = comdat any

$_ZNSt3__119__libcpp_deallocateEPv = comdat any

$_ZNSt3__110__allocateEm = comdat any

$_ZNSt3__121__libcpp_condvar_waitEP14pthread_cond_tP15pthread_mutex_t = comdat any

$_ZNSt3__126__libcpp_condvar_broadcastEP14pthread_cond_t = comdat any

$_ZNSt9exceptionC2Ev = comdat any

$_ZNSt3__118__libcpp_refstringC2EPKc = comdat any

$_ZNKSt3__118__libcpp_refstring5c_strEv = comdat any

$_ZNSt3__118__libcpp_refstringD2Ev = comdat any

$_ZNKSt3__118__libcpp_refstring15__uses_refcountEv = comdat any

$_ZTVNSt3__111__stdoutbufIwEE = comdat any

$_ZTINSt3__111__stdoutbufIwEE = comdat any

$_ZTSNSt3__111__stdoutbufIwEE = comdat any

$_ZTVNSt3__111__stdoutbufIcEE = comdat any

$_ZTINSt3__111__stdoutbufIcEE = comdat any

$_ZTSNSt3__111__stdoutbufIcEE = comdat any

$_ZTVNSt3__110__stdinbufIwEE = comdat any

$_ZTINSt3__110__stdinbufIwEE = comdat any

$_ZTSNSt3__110__stdinbufIwEE = comdat any

$_ZTVNSt3__110__stdinbufIcEE = comdat any

$_ZTINSt3__110__stdinbufIcEE = comdat any

$_ZTSNSt3__110__stdinbufIcEE = comdat any

$_ZTVNSt12experimental15fundamentals_v13pmr32__new_delete_memory_resource_impE = comdat any

$_ZTVNSt12experimental15fundamentals_v13pmr26__null_memory_resource_impE = comdat any

$_ZTINSt12experimental15fundamentals_v13pmr26__null_memory_resource_impE = comdat any

$_ZTSNSt12experimental15fundamentals_v13pmr26__null_memory_resource_impE = comdat any

$_ZTINSt12experimental15fundamentals_v13pmr15memory_resourceE = comdat any

$_ZTSNSt12experimental15fundamentals_v13pmr15memory_resourceE = comdat any

$_ZTINSt12experimental15fundamentals_v13pmr32__new_delete_memory_resource_impE = comdat any

$_ZTSNSt12experimental15fundamentals_v13pmr32__new_delete_memory_resource_impE = comdat any

@_ZNSt3__112__rs_default4__c_E = global i32 0, align 4
@_ZNSt3__1L8__rs_mutE = internal global %union.pthread_mutex_t zeroinitializer, align 8
@_ZGVZNSt3__112__rs_defaultclEvE6__rs_g = internal global i64 0, align 8
@_ZZNSt3__112__rs_defaultclEvE6__rs_g = internal global %"class.std::__1::mersenne_twister_engine" zeroinitializer, align 8
@stderr = external global %struct._IO_FILE.38*, align 8
@.str = private unnamed_addr constant [41 x i8] c"terminate_handler unexpectedly returned\0A\00", align 1
@.str.1 = private unnamed_addr constant [51 x i8] c"terminate_handler unexpectedly threw an exception\0A\00", align 1
@_ZStL19__terminate_handler = internal global void ()* null, align 8
@llvm.global_ctors = appending global [3 x { i32, void ()*, i8* }] [{ i32, void ()*, i8* } { i32 65535, void ()* @_GLOBAL__sub_I_iostream.ii, i8* null }, { i32, void ()*, i8* } { i32 101, void ()* @_GLOBAL__I_000101, i8* null }, { i32, void ()*, i8* } { i32 65535, void ()* @_GLOBAL__sub_I_memory_resource.ii, i8* null }]
@_ZNSt3__119__start_std_streamsE = global %"struct.std::__1::__less" zeroinitializer, align 1
@__dso_handle = external hidden global i8
@_ZNSt3__14coutE = global [160 x i8] zeroinitializer, align 8
@_ZNSt3__15wcoutE = global [160 x i8] zeroinitializer, align 8
@_ZNSt3__14clogE = global [160 x i8] zeroinitializer, align 8
@_ZNSt3__15wclogE = global [160 x i8] zeroinitializer, align 8
@stdin = external global %struct._IO_FILE.38*, align 8
@_ZNSt3__1L5__cinE = internal global [104 x i8] zeroinitializer, align 8
@_ZNSt3__1L6mb_cinE = internal global %struct.__mbstate_t.111 zeroinitializer, align 4
@_ZNSt3__13cinE = global [168 x i8] zeroinitializer, align 8
@_ZNSt3__1L6__wcinE = internal global [104 x i8] zeroinitializer, align 8
@_ZNSt3__1L7mb_wcinE = internal global %struct.__mbstate_t.111 zeroinitializer, align 4
@_ZNSt3__14wcinE = global [168 x i8] zeroinitializer, align 8
@stdout = external global %struct._IO_FILE.38*, align 8
@_ZNSt3__1L6__coutE = internal global [96 x i8] zeroinitializer, align 8
@_ZNSt3__1L7mb_coutE = internal global %struct.__mbstate_t.111 zeroinitializer, align 4
@_ZNSt3__1L7__wcoutE = internal global [96 x i8] zeroinitializer, align 8
@_ZNSt3__1L8mb_wcoutE = internal global %struct.__mbstate_t.111 zeroinitializer, align 4
@_ZNSt3__1L6__cerrE = internal global [96 x i8] zeroinitializer, align 8
@_ZNSt3__1L7mb_cerrE = internal global %struct.__mbstate_t.111 zeroinitializer, align 4
@_ZNSt3__14cerrE = global [160 x i8] zeroinitializer, align 8
@_ZNSt3__1L7__wcerrE = internal global [96 x i8] zeroinitializer, align 8
@_ZNSt3__1L8mb_wcerrE = internal global %struct.__mbstate_t.111 zeroinitializer, align 4
@_ZNSt3__15wcerrE = global [160 x i8] zeroinitializer, align 8
@_ZTVNSt3__113basic_ostreamIwNS_11char_traitsIwEEEE = available_externally unnamed_addr constant { [5 x i8*], [5 x i8*] } { [5 x i8*] [i8* inttoptr (i64 8 to i8*), i8* null, i8* bitcast (i8** @_ZTINSt3__113basic_ostreamIwNS_11char_traitsIwEEEE to i8*), i8* bitcast (void (%"class.std::__1::basic_ostream.2"*)* @_ZNSt3__113basic_ostreamIwNS_11char_traitsIwEEED1Ev to i8*), i8* bitcast (void (%"class.std::__1::basic_ostream.2"*)* @_ZNSt3__113basic_ostreamIwNS_11char_traitsIwEEED0Ev to i8*)], [5 x i8*] [i8* inttoptr (i64 -8 to i8*), i8* inttoptr (i64 -8 to i8*), i8* bitcast (i8** @_ZTINSt3__113basic_ostreamIwNS_11char_traitsIwEEEE to i8*), i8* bitcast (void (%"class.std::__1::basic_ostream.2"*)* @_ZTv0_n24_NSt3__113basic_ostreamIwNS_11char_traitsIwEEED1Ev to i8*), i8* bitcast (void (%"class.std::__1::basic_ostream.2"*)* @_ZTv0_n24_NSt3__113basic_ostreamIwNS_11char_traitsIwEEED0Ev to i8*)] }, align 8
@_ZTINSt3__113basic_ostreamIwNS_11char_traitsIwEEEE = external constant i8*
@_ZTVNSt3__19basic_iosIwNS_11char_traitsIwEEEE = available_externally unnamed_addr constant { [4 x i8*] } { [4 x i8*] [i8* null, i8* bitcast (i8** @_ZTINSt3__19basic_iosIwNS_11char_traitsIwEEEE to i8*), i8* bitcast (void (%"class.std::__1::basic_ios.1"*)* @_ZNSt3__19basic_iosIwNS_11char_traitsIwEEED1Ev to i8*), i8* bitcast (void (%"class.std::__1::basic_ios.1"*)* @_ZNSt3__19basic_iosIwNS_11char_traitsIwEEED0Ev to i8*)] }, align 8
@_ZTINSt3__19basic_iosIwNS_11char_traitsIwEEEE = external constant i8*
@_ZTVNSt3__18ios_baseE = available_externally unnamed_addr constant { [4 x i8*] } { [4 x i8*] [i8* null, i8* bitcast (i8** @_ZTINSt3__18ios_baseE to i8*), i8* bitcast (void (%"class.std::__1::ios_base.119"*)* @_ZNSt3__18ios_baseD1Ev to i8*), i8* bitcast (void (%"class.std::__1::ios_base.119"*)* @_ZNSt3__18ios_baseD0Ev to i8*)] }, align 8
@_ZTINSt3__18ios_baseE = external constant i8*
@_ZTVNSt3__111__stdoutbufIwEE = linkonce_odr hidden unnamed_addr constant { [16 x i8*] } { [16 x i8*] [i8* null, i8* bitcast ({ i8*, i8*, i8* }* @_ZTINSt3__111__stdoutbufIwEE to i8*), i8* bitcast (void (%"class.std::__1::__stdoutbuf.10"*)* @_ZNSt3__111__stdoutbufIwED2Ev to i8*), i8* bitcast (void (%"class.std::__1::__stdoutbuf.10"*)* @_ZNSt3__111__stdoutbufIwED0Ev to i8*), i8* bitcast (void (%"class.std::__1::__stdoutbuf.10"*, %"class.std::__1::locale.115"*)* @_ZNSt3__111__stdoutbufIwE5imbueERKNS_6localeE to i8*), i8* bitcast (%"class.std::__1::basic_streambuf.7"* (%"class.std::__1::basic_streambuf.7"*, i32*, i64)* @_ZNSt3__115basic_streambufIwNS_11char_traitsIwEEE6setbufEPwl to i8*), i8* bitcast (void ()* @_ZNSt3__115basic_streambufIwNS_11char_traitsIwEEE7seekoffExNS_8ios_base7seekdirEj to i8*), i8* bitcast (void ()* @_ZNSt3__115basic_streambufIwNS_11char_traitsIwEEE7seekposENS_4fposI11__mbstate_tEEj to i8*), i8* bitcast (i32 (%"class.std::__1::__stdoutbuf.10"*)* @_ZNSt3__111__stdoutbufIwE4syncEv to i8*), i8* bitcast (i64 (%"class.std::__1::basic_streambuf.7"*)* @_ZNSt3__115basic_streambufIwNS_11char_traitsIwEEE9showmanycEv to i8*), i8* bitcast (i64 (%"class.std::__1::basic_streambuf.7"*, i32*, i64)* @_ZNSt3__115basic_streambufIwNS_11char_traitsIwEEE6xsgetnEPwl to i8*), i8* bitcast (i32 (%"class.std::__1::basic_streambuf.7"*)* @_ZNSt3__115basic_streambufIwNS_11char_traitsIwEEE9underflowEv to i8*), i8* bitcast (i32 (%"class.std::__1::basic_streambuf.7"*)* @_ZNSt3__115basic_streambufIwNS_11char_traitsIwEEE5uflowEv to i8*), i8* bitcast (i32 (%"class.std::__1::basic_streambuf.7"*, i32)* @_ZNSt3__115basic_streambufIwNS_11char_traitsIwEEE9pbackfailEj to i8*), i8* bitcast (i64 (%"class.std::__1::__stdoutbuf.10"*, i32*, i64)* @_ZNSt3__111__stdoutbufIwE6xsputnEPKwl to i8*), i8* bitcast (i32 (%"class.std::__1::__stdoutbuf.10"*, i32)* @_ZNSt3__111__stdoutbufIwE8overflowEj to i8*)] }, comdat, align 8
@_ZTINSt3__111__stdoutbufIwEE = linkonce_odr hidden constant { i8*, i8*, i8* } { i8* bitcast (i8** getelementptr inbounds (i8*, i8** @_ZTVN10__cxxabiv120__si_class_type_infoE, i64 2) to i8*), i8* getelementptr inbounds ([25 x i8], [25 x i8]* @_ZTSNSt3__111__stdoutbufIwEE, i32 0, i32 0), i8* bitcast (i8** @_ZTINSt3__115basic_streambufIwNS_11char_traitsIwEEEE to i8*) }, comdat
@_ZTVN10__cxxabiv120__si_class_type_infoE = external global i8*
@_ZTSNSt3__111__stdoutbufIwEE = linkonce_odr hidden constant [25 x i8] c"NSt3__111__stdoutbufIwEE\00", comdat
@_ZTINSt3__115basic_streambufIwNS_11char_traitsIwEEEE = external constant i8*
@_ZTVNSt3__113basic_ostreamIcNS_11char_traitsIcEEEE = available_externally unnamed_addr constant { [5 x i8*], [5 x i8*] } { [5 x i8*] [i8* inttoptr (i64 8 to i8*), i8* null, i8* bitcast (i8** @_ZTINSt3__113basic_ostreamIcNS_11char_traitsIcEEEE to i8*), i8* bitcast (void (%"class.std::__1::basic_ostream.120"*)* @_ZNSt3__113basic_ostreamIcNS_11char_traitsIcEEED1Ev to i8*), i8* bitcast (void (%"class.std::__1::basic_ostream.120"*)* @_ZNSt3__113basic_ostreamIcNS_11char_traitsIcEEED0Ev to i8*)], [5 x i8*] [i8* inttoptr (i64 -8 to i8*), i8* inttoptr (i64 -8 to i8*), i8* bitcast (i8** @_ZTINSt3__113basic_ostreamIcNS_11char_traitsIcEEEE to i8*), i8* bitcast (void (%"class.std::__1::basic_ostream.120"*)* @_ZTv0_n24_NSt3__113basic_ostreamIcNS_11char_traitsIcEEED1Ev to i8*), i8* bitcast (void (%"class.std::__1::basic_ostream.120"*)* @_ZTv0_n24_NSt3__113basic_ostreamIcNS_11char_traitsIcEEED0Ev to i8*)] }, align 8
@_ZTINSt3__113basic_ostreamIcNS_11char_traitsIcEEEE = external constant i8*
@_ZTVNSt3__19basic_iosIcNS_11char_traitsIcEEEE = available_externally unnamed_addr constant { [4 x i8*] } { [4 x i8*] [i8* null, i8* bitcast (i8** @_ZTINSt3__19basic_iosIcNS_11char_traitsIcEEEE to i8*), i8* bitcast (void (%"class.std::__1::basic_ios.123"*)* @_ZNSt3__19basic_iosIcNS_11char_traitsIcEEED1Ev to i8*), i8* bitcast (void (%"class.std::__1::basic_ios.123"*)* @_ZNSt3__19basic_iosIcNS_11char_traitsIcEEED0Ev to i8*)] }, align 8
@_ZTINSt3__19basic_iosIcNS_11char_traitsIcEEEE = external constant i8*
@_ZTVNSt3__111__stdoutbufIcEE = linkonce_odr hidden unnamed_addr constant { [16 x i8*] } { [16 x i8*] [i8* null, i8* bitcast ({ i8*, i8*, i8* }* @_ZTINSt3__111__stdoutbufIcEE to i8*), i8* bitcast (void (%"class.std::__1::__stdoutbuf"*)* @_ZNSt3__111__stdoutbufIcED2Ev to i8*), i8* bitcast (void (%"class.std::__1::__stdoutbuf"*)* @_ZNSt3__111__stdoutbufIcED0Ev to i8*), i8* bitcast (void (%"class.std::__1::__stdoutbuf"*, %"class.std::__1::locale.115"*)* @_ZNSt3__111__stdoutbufIcE5imbueERKNS_6localeE to i8*), i8* bitcast (%"class.std::__1::basic_streambuf.116"* (%"class.std::__1::basic_streambuf.116"*, i8*, i64)* @_ZNSt3__115basic_streambufIcNS_11char_traitsIcEEE6setbufEPcl to i8*), i8* bitcast (void ()* @_ZNSt3__115basic_streambufIcNS_11char_traitsIcEEE7seekoffExNS_8ios_base7seekdirEj to i8*), i8* bitcast (void ()* @_ZNSt3__115basic_streambufIcNS_11char_traitsIcEEE7seekposENS_4fposI11__mbstate_tEEj to i8*), i8* bitcast (i32 (%"class.std::__1::__stdoutbuf"*)* @_ZNSt3__111__stdoutbufIcE4syncEv to i8*), i8* bitcast (i64 (%"class.std::__1::basic_streambuf.116"*)* @_ZNSt3__115basic_streambufIcNS_11char_traitsIcEEE9showmanycEv to i8*), i8* bitcast (i64 (%"class.std::__1::basic_streambuf.116"*, i8*, i64)* @_ZNSt3__115basic_streambufIcNS_11char_traitsIcEEE6xsgetnEPcl to i8*), i8* bitcast (i32 (%"class.std::__1::basic_streambuf.116"*)* @_ZNSt3__115basic_streambufIcNS_11char_traitsIcEEE9underflowEv to i8*), i8* bitcast (i32 (%"class.std::__1::basic_streambuf.116"*)* @_ZNSt3__115basic_streambufIcNS_11char_traitsIcEEE5uflowEv to i8*), i8* bitcast (i32 (%"class.std::__1::basic_streambuf.116"*, i32)* @_ZNSt3__115basic_streambufIcNS_11char_traitsIcEEE9pbackfailEi to i8*), i8* bitcast (i64 (%"class.std::__1::__stdoutbuf"*, i8*, i64)* @_ZNSt3__111__stdoutbufIcE6xsputnEPKcl to i8*), i8* bitcast (i32 (%"class.std::__1::__stdoutbuf"*, i32)* @_ZNSt3__111__stdoutbufIcE8overflowEi to i8*)] }, comdat, align 8
@_ZTINSt3__111__stdoutbufIcEE = linkonce_odr hidden constant { i8*, i8*, i8* } { i8* bitcast (i8** getelementptr inbounds (i8*, i8** @_ZTVN10__cxxabiv120__si_class_type_infoE, i64 2) to i8*), i8* getelementptr inbounds ([25 x i8], [25 x i8]* @_ZTSNSt3__111__stdoutbufIcEE, i32 0, i32 0), i8* bitcast (i8** @_ZTINSt3__115basic_streambufIcNS_11char_traitsIcEEEE to i8*) }, comdat
@_ZTSNSt3__111__stdoutbufIcEE = linkonce_odr hidden constant [25 x i8] c"NSt3__111__stdoutbufIcEE\00", comdat
@_ZTINSt3__115basic_streambufIcNS_11char_traitsIcEEEE = external constant i8*
@_ZTVNSt3__113basic_istreamIwNS_11char_traitsIwEEEE = available_externally unnamed_addr constant { [5 x i8*], [5 x i8*] } { [5 x i8*] [i8* inttoptr (i64 16 to i8*), i8* null, i8* bitcast (i8** @_ZTINSt3__113basic_istreamIwNS_11char_traitsIwEEEE to i8*), i8* bitcast (void (%"class.std::__1::basic_istream.0"*)* @_ZNSt3__113basic_istreamIwNS_11char_traitsIwEEED1Ev to i8*), i8* bitcast (void (%"class.std::__1::basic_istream.0"*)* @_ZNSt3__113basic_istreamIwNS_11char_traitsIwEEED0Ev to i8*)], [5 x i8*] [i8* inttoptr (i64 -16 to i8*), i8* inttoptr (i64 -16 to i8*), i8* bitcast (i8** @_ZTINSt3__113basic_istreamIwNS_11char_traitsIwEEEE to i8*), i8* bitcast (void (%"class.std::__1::basic_istream.0"*)* @_ZTv0_n24_NSt3__113basic_istreamIwNS_11char_traitsIwEEED1Ev to i8*), i8* bitcast (void (%"class.std::__1::basic_istream.0"*)* @_ZTv0_n24_NSt3__113basic_istreamIwNS_11char_traitsIwEEED0Ev to i8*)] }, align 8
@_ZTINSt3__113basic_istreamIwNS_11char_traitsIwEEEE = external constant i8*
@_ZTVNSt3__110__stdinbufIwEE = linkonce_odr hidden unnamed_addr constant { [16 x i8*] } { [16 x i8*] [i8* null, i8* bitcast ({ i8*, i8*, i8* }* @_ZTINSt3__110__stdinbufIwEE to i8*), i8* bitcast (void (%"class.std::__1::__stdinbuf.6"*)* @_ZNSt3__110__stdinbufIwED2Ev to i8*), i8* bitcast (void (%"class.std::__1::__stdinbuf.6"*)* @_ZNSt3__110__stdinbufIwED0Ev to i8*), i8* bitcast (void (%"class.std::__1::__stdinbuf.6"*, %"class.std::__1::locale.115"*)* @_ZNSt3__110__stdinbufIwE5imbueERKNS_6localeE to i8*), i8* bitcast (%"class.std::__1::basic_streambuf.7"* (%"class.std::__1::basic_streambuf.7"*, i32*, i64)* @_ZNSt3__115basic_streambufIwNS_11char_traitsIwEEE6setbufEPwl to i8*), i8* bitcast (void ()* @_ZNSt3__115basic_streambufIwNS_11char_traitsIwEEE7seekoffExNS_8ios_base7seekdirEj to i8*), i8* bitcast (void ()* @_ZNSt3__115basic_streambufIwNS_11char_traitsIwEEE7seekposENS_4fposI11__mbstate_tEEj to i8*), i8* bitcast (i32 (%"class.std::__1::basic_streambuf.7"*)* @_ZNSt3__115basic_streambufIwNS_11char_traitsIwEEE4syncEv to i8*), i8* bitcast (i64 (%"class.std::__1::basic_streambuf.7"*)* @_ZNSt3__115basic_streambufIwNS_11char_traitsIwEEE9showmanycEv to i8*), i8* bitcast (i64 (%"class.std::__1::basic_streambuf.7"*, i32*, i64)* @_ZNSt3__115basic_streambufIwNS_11char_traitsIwEEE6xsgetnEPwl to i8*), i8* bitcast (i32 (%"class.std::__1::__stdinbuf.6"*)* @_ZNSt3__110__stdinbufIwE9underflowEv to i8*), i8* bitcast (i32 (%"class.std::__1::__stdinbuf.6"*)* @_ZNSt3__110__stdinbufIwE5uflowEv to i8*), i8* bitcast (i32 (%"class.std::__1::__stdinbuf.6"*, i32)* @_ZNSt3__110__stdinbufIwE9pbackfailEj to i8*), i8* bitcast (i64 (%"class.std::__1::basic_streambuf.7"*, i32*, i64)* @_ZNSt3__115basic_streambufIwNS_11char_traitsIwEEE6xsputnEPKwl to i8*), i8* bitcast (i32 (%"class.std::__1::basic_streambuf.7"*, i32)* @_ZNSt3__115basic_streambufIwNS_11char_traitsIwEEE8overflowEj to i8*)] }, comdat, align 8
@_ZTINSt3__110__stdinbufIwEE = linkonce_odr hidden constant { i8*, i8*, i8* } { i8* bitcast (i8** getelementptr inbounds (i8*, i8** @_ZTVN10__cxxabiv120__si_class_type_infoE, i64 2) to i8*), i8* getelementptr inbounds ([24 x i8], [24 x i8]* @_ZTSNSt3__110__stdinbufIwEE, i32 0, i32 0), i8* bitcast (i8** @_ZTINSt3__115basic_streambufIwNS_11char_traitsIwEEEE to i8*) }, comdat
@.str.3 = private unnamed_addr constant [38 x i8] c"unsupported locale for standard input\00", align 1
@_ZTSNSt3__110__stdinbufIwEE = linkonce_odr hidden constant [24 x i8] c"NSt3__110__stdinbufIwEE\00", comdat
@_ZTVNSt3__113basic_istreamIcNS_11char_traitsIcEEEE = available_externally unnamed_addr constant { [5 x i8*], [5 x i8*] } { [5 x i8*] [i8* inttoptr (i64 16 to i8*), i8* null, i8* bitcast (i8** @_ZTINSt3__113basic_istreamIcNS_11char_traitsIcEEEE to i8*), i8* bitcast (void (%"class.std::__1::basic_istream.122"*)* @_ZNSt3__113basic_istreamIcNS_11char_traitsIcEEED1Ev to i8*), i8* bitcast (void (%"class.std::__1::basic_istream.122"*)* @_ZNSt3__113basic_istreamIcNS_11char_traitsIcEEED0Ev to i8*)], [5 x i8*] [i8* inttoptr (i64 -16 to i8*), i8* inttoptr (i64 -16 to i8*), i8* bitcast (i8** @_ZTINSt3__113basic_istreamIcNS_11char_traitsIcEEEE to i8*), i8* bitcast (void (%"class.std::__1::basic_istream.122"*)* @_ZTv0_n24_NSt3__113basic_istreamIcNS_11char_traitsIcEEED1Ev to i8*), i8* bitcast (void (%"class.std::__1::basic_istream.122"*)* @_ZTv0_n24_NSt3__113basic_istreamIcNS_11char_traitsIcEEED0Ev to i8*)] }, align 8
@_ZTINSt3__113basic_istreamIcNS_11char_traitsIcEEEE = external constant i8*
@_ZTVNSt3__110__stdinbufIcEE = linkonce_odr hidden unnamed_addr constant { [16 x i8*] } { [16 x i8*] [i8* null, i8* bitcast ({ i8*, i8*, i8* }* @_ZTINSt3__110__stdinbufIcEE to i8*), i8* bitcast (void (%"class.std::__1::__stdinbuf"*)* @_ZNSt3__110__stdinbufIcED2Ev to i8*), i8* bitcast (void (%"class.std::__1::__stdinbuf"*)* @_ZNSt3__110__stdinbufIcED0Ev to i8*), i8* bitcast (void (%"class.std::__1::__stdinbuf"*, %"class.std::__1::locale.115"*)* @_ZNSt3__110__stdinbufIcE5imbueERKNS_6localeE to i8*), i8* bitcast (%"class.std::__1::basic_streambuf.116"* (%"class.std::__1::basic_streambuf.116"*, i8*, i64)* @_ZNSt3__115basic_streambufIcNS_11char_traitsIcEEE6setbufEPcl to i8*), i8* bitcast (void ()* @_ZNSt3__115basic_streambufIcNS_11char_traitsIcEEE7seekoffExNS_8ios_base7seekdirEj to i8*), i8* bitcast (void ()* @_ZNSt3__115basic_streambufIcNS_11char_traitsIcEEE7seekposENS_4fposI11__mbstate_tEEj to i8*), i8* bitcast (i32 (%"class.std::__1::basic_streambuf.116"*)* @_ZNSt3__115basic_streambufIcNS_11char_traitsIcEEE4syncEv to i8*), i8* bitcast (i64 (%"class.std::__1::basic_streambuf.116"*)* @_ZNSt3__115basic_streambufIcNS_11char_traitsIcEEE9showmanycEv to i8*), i8* bitcast (i64 (%"class.std::__1::basic_streambuf.116"*, i8*, i64)* @_ZNSt3__115basic_streambufIcNS_11char_traitsIcEEE6xsgetnEPcl to i8*), i8* bitcast (i32 (%"class.std::__1::__stdinbuf"*)* @_ZNSt3__110__stdinbufIcE9underflowEv to i8*), i8* bitcast (i32 (%"class.std::__1::__stdinbuf"*)* @_ZNSt3__110__stdinbufIcE5uflowEv to i8*), i8* bitcast (i32 (%"class.std::__1::__stdinbuf"*, i32)* @_ZNSt3__110__stdinbufIcE9pbackfailEi to i8*), i8* bitcast (i64 (%"class.std::__1::basic_streambuf.116"*, i8*, i64)* @_ZNSt3__115basic_streambufIcNS_11char_traitsIcEEE6xsputnEPKcl to i8*), i8* bitcast (i32 (%"class.std::__1::basic_streambuf.116"*, i32)* @_ZNSt3__115basic_streambufIcNS_11char_traitsIcEEE8overflowEi to i8*)] }, comdat, align 8
@_ZTINSt3__110__stdinbufIcEE = linkonce_odr hidden constant { i8*, i8*, i8* } { i8* bitcast (i8** getelementptr inbounds (i8*, i8** @_ZTVN10__cxxabiv120__si_class_type_infoE, i64 2) to i8*), i8* getelementptr inbounds ([24 x i8], [24 x i8]* @_ZTSNSt3__110__stdinbufIcEE, i32 0, i32 0), i8* bitcast (i8** @_ZTINSt3__115basic_streambufIcNS_11char_traitsIcEEEE to i8*) }, comdat
@_ZTSNSt3__110__stdinbufIcEE = linkonce_odr hidden constant [24 x i8] c"NSt3__110__stdinbufIcEE\00", comdat
@_ZNSt3__17codecvtIcc11__mbstate_tE2idE = global { %"struct.std::__1::once_flag.112", i32 } zeroinitializer, align 8
@_ZNSt3__17codecvtIwc11__mbstate_tE2idE = global { %"struct.std::__1::once_flag.112", i32 } zeroinitializer, align 8
@_ZTISt8bad_cast = external constant i8*
@_ZNSt3__16locale2id9__next_idE = global i32 0, align 4
@_ZNSt12experimental15fundamentals_v13pmr12_GLOBAL__N_18res_initE = internal global { { { i8** }, { i8** } } } { { { i8** }, { i8** } } { { i8** } { i8** getelementptr inbounds ({ [7 x i8*] }, { [7 x i8*] }* @_ZTVNSt12experimental15fundamentals_v13pmr32__new_delete_memory_resource_impE, i32 0, inrange i32 0, i32 2) }, { i8** } { i8** getelementptr inbounds ({ [7 x i8*] }, { [7 x i8*] }* @_ZTVNSt12experimental15fundamentals_v13pmr26__null_memory_resource_impE, i32 0, inrange i32 0, i32 2) } } }, align 8
@_ZTVNSt12experimental15fundamentals_v13pmr32__new_delete_memory_resource_impE = linkonce_odr unnamed_addr constant { [7 x i8*] } { [7 x i8*] [i8* null, i8* bitcast ({ i8*, i8*, i8* }* @_ZTINSt12experimental15fundamentals_v13pmr32__new_delete_memory_resource_impE to i8*), i8* bitcast (void (%"class.std::exception.153"*)* @_ZNSt12experimental15fundamentals_v13pmr15memory_resourceD2Ev to i8*), i8* bitcast (void (%"class.std::bad_cast.154"*)* @_ZNSt12experimental15fundamentals_v13pmr32__new_delete_memory_resource_impD0Ev to i8*), i8* bitcast (i8* (%"class.std::bad_cast.154"*, i64, i64)* @_ZNSt12experimental15fundamentals_v13pmr32__new_delete_memory_resource_imp11do_allocateEmm to i8*), i8* bitcast (void (%"class.std::bad_cast.154"*, i8*, i64, i64)* @_ZNSt12experimental15fundamentals_v13pmr32__new_delete_memory_resource_imp13do_deallocateEPvmm to i8*), i8* bitcast (i1 (%"class.std::bad_cast.154"*, %"class.std::exception.153"*)* @_ZNKSt12experimental15fundamentals_v13pmr32__new_delete_memory_resource_imp11do_is_equalERKNS1_15memory_resourceE to i8*)] }, comdat, align 8
@_ZTVNSt12experimental15fundamentals_v13pmr26__null_memory_resource_impE = linkonce_odr unnamed_addr constant { [7 x i8*] } { [7 x i8*] [i8* null, i8* bitcast ({ i8*, i8*, i8* }* @_ZTINSt12experimental15fundamentals_v13pmr26__null_memory_resource_impE to i8*), i8* bitcast (void (%"class.std::exception.153"*)* @_ZNSt12experimental15fundamentals_v13pmr15memory_resourceD2Ev to i8*), i8* bitcast (void (%"class.std::bad_cast.154"*)* @_ZNSt12experimental15fundamentals_v13pmr26__null_memory_resource_impD0Ev to i8*), i8* bitcast (i8* (%"class.std::bad_cast.154"*, i64, i64)* @_ZNSt12experimental15fundamentals_v13pmr26__null_memory_resource_imp11do_allocateEmm to i8*), i8* bitcast (void (%"class.std::bad_cast.154"*, i8*, i64, i64)* @_ZNSt12experimental15fundamentals_v13pmr26__null_memory_resource_imp13do_deallocateEPvmm to i8*), i8* bitcast (i1 (%"class.std::bad_cast.154"*, %"class.std::exception.153"*)* @_ZNKSt12experimental15fundamentals_v13pmr26__null_memory_resource_imp11do_is_equalERKNS1_15memory_resourceE to i8*)] }, comdat, align 8
@_ZTINSt12experimental15fundamentals_v13pmr26__null_memory_resource_impE = linkonce_odr constant { i8*, i8*, i8* } { i8* bitcast (i8** getelementptr inbounds (i8*, i8** @_ZTVN10__cxxabiv120__si_class_type_infoE, i64 2) to i8*), i8* getelementptr inbounds ([68 x i8], [68 x i8]* @_ZTSNSt12experimental15fundamentals_v13pmr26__null_memory_resource_impE, i32 0, i32 0), i8* bitcast ({ i8*, i8* }* @_ZTINSt12experimental15fundamentals_v13pmr15memory_resourceE to i8*) }, comdat
@_ZTSNSt12experimental15fundamentals_v13pmr26__null_memory_resource_impE = linkonce_odr constant [68 x i8] c"NSt12experimental15fundamentals_v13pmr26__null_memory_resource_impE\00", comdat
@_ZTINSt12experimental15fundamentals_v13pmr15memory_resourceE = linkonce_odr constant { i8*, i8* } { i8* bitcast (i8** getelementptr inbounds (i8*, i8** @_ZTVN10__cxxabiv117__class_type_infoE, i64 2) to i8*), i8* getelementptr inbounds ([57 x i8], [57 x i8]* @_ZTSNSt12experimental15fundamentals_v13pmr15memory_resourceE, i32 0, i32 0) }, comdat
@_ZTVN10__cxxabiv117__class_type_infoE = external global i8*
@_ZTSNSt12experimental15fundamentals_v13pmr15memory_resourceE = linkonce_odr constant [57 x i8] c"NSt12experimental15fundamentals_v13pmr15memory_resourceE\00", comdat
@_ZTINSt12experimental15fundamentals_v13pmr32__new_delete_memory_resource_impE = linkonce_odr constant { i8*, i8*, i8* } { i8* bitcast (i8** getelementptr inbounds (i8*, i8** @_ZTVN10__cxxabiv120__si_class_type_infoE, i64 2) to i8*), i8* getelementptr inbounds ([74 x i8], [74 x i8]* @_ZTSNSt12experimental15fundamentals_v13pmr32__new_delete_memory_resource_impE, i32 0, i32 0), i8* bitcast ({ i8*, i8* }* @_ZTINSt12experimental15fundamentals_v13pmr15memory_resourceE to i8*) }, comdat
@_ZTSNSt12experimental15fundamentals_v13pmr32__new_delete_memory_resource_impE = linkonce_odr constant [74 x i8] c"NSt12experimental15fundamentals_v13pmr32__new_delete_memory_resource_impE\00", comdat
@_ZNSt3__1L3mutE = internal global %union.pthread_mutex_t zeroinitializer, align 8
@_ZNSt3__1L2cvE = internal global %union.pthread_cond_t.199 zeroinitializer, align 8
@_ZTISt9bad_alloc = external constant i8*
@_ZStL13__new_handler = internal global void ()* null, align 8
@_ZTISt13runtime_error = constant { i8*, i8*, i8* } { i8* bitcast (i8** getelementptr inbounds (i8*, i8** @_ZTVN10__cxxabiv120__si_class_type_infoE, i64 2) to i8*), i8* getelementptr inbounds ([18 x i8], [18 x i8]* @_ZTSSt13runtime_error, i32 0, i32 0), i8* bitcast (i8** @_ZTISt9exception to i8*) }
@_ZTSSt13runtime_error = constant [18 x i8] c"St13runtime_error\00"
@_ZTISt9exception = external constant i8*
@_ZTVSt13runtime_error = unnamed_addr constant { [5 x i8*] } { [5 x i8*] [i8* null, i8* bitcast ({ i8*, i8*, i8* }* @_ZTISt13runtime_error to i8*), i8* bitcast (void (%"class.std::runtime_error.156"*)* @_ZNSt13runtime_errorD1Ev to i8*), i8* bitcast (void (%"class.std::runtime_error.156"*)* @_ZNSt13runtime_errorD0Ev to i8*), i8* bitcast (i8* (%"class.std::runtime_error.156"*)* @_ZNKSt13runtime_error4whatEv to i8*)] }, align 8
@_ZTVSt9exception = available_externally unnamed_addr constant { [5 x i8*] } { [5 x i8*] [i8* null, i8* bitcast (i8** @_ZTISt9exception to i8*), i8* bitcast (void (%"class.std::exception.153"*)* @_ZNSt9exceptionD1Ev to i8*), i8* bitcast (void (%"class.std::exception.153"*)* @_ZNSt9exceptionD0Ev to i8*), i8* bitcast (i8* (%"class.std::exception.153"*)* @_ZNKSt9exception4whatEv to i8*)] }, align 8

@_ZNSt3__112__rs_defaultC1Ev = alias void (%"struct.std::__1::__less"*), void (%"struct.std::__1::__less"*)* @_ZNSt3__112__rs_defaultC2Ev
@_ZNSt3__112__rs_defaultC1ERKS0_ = alias void (%"struct.std::__1::__less"*, %"struct.std::__1::__less"*), void (%"struct.std::__1::__less"*, %"struct.std::__1::__less"*)* @_ZNSt3__112__rs_defaultC2ERKS0_
@_ZNSt3__112__rs_defaultD1Ev = alias void (%"struct.std::__1::__less"*), void (%"struct.std::__1::__less"*)* @_ZNSt3__112__rs_defaultD2Ev
@_ZNSt3__18ios_base4InitC1Ev = alias void (%"struct.std::__1::__less"*), void (%"struct.std::__1::__less"*)* @_ZNSt3__18ios_base4InitC2Ev
@_ZNSt3__18ios_base4InitD1Ev = alias void (%"struct.std::__1::__less"*), void (%"struct.std::__1::__less"*)* @_ZNSt3__18ios_base4InitD2Ev
@_ZNSt3__16localeC1ERKS0_ = alias void (%"class.std::__1::locale.115"*, %"class.std::__1::locale.115"*), void (%"class.std::__1::locale.115"*, %"class.std::__1::locale.115"*)* @_ZNSt3__16localeC2ERKS0_
@_ZNSt3__16localeD1Ev = alias void (%"class.std::__1::locale.115"*), void (%"class.std::__1::locale.115"*)* @_ZNSt3__16localeD2Ev
@_ZNSt13runtime_errorC1EPKc = alias void (%"class.std::runtime_error.156"*, i8*), void (%"class.std::runtime_error.156"*, i8*)* @_ZNSt13runtime_errorC2EPKc
@_ZNSt13runtime_errorD1Ev = alias void (%"class.std::runtime_error.156"*), void (%"class.std::runtime_error.156"*)* @_ZNSt13runtime_errorD2Ev

; Function Attrs: sspstrong uwtable
define weak_odr void @_ZNSt3__16__sortIRNS_6__lessIccEEPcEEvT0_S5_T_(i8*, i8*, %"struct.std::__1::__less"* dereferenceable(1)) #0 comdat {
  %4 = alloca i8*, align 8
  %5 = alloca i8*, align 8
  %6 = alloca %"struct.std::__1::__less"*, align 8
  %7 = alloca i64, align 8
  %8 = alloca i64, align 8
  %9 = alloca i32
  %10 = alloca i8*, align 8
  %11 = alloca i8*, align 8
  %12 = alloca i32, align 4
  %13 = alloca i64, align 8
  %14 = alloca i8*, align 8
  %15 = alloca i8*, align 8
  %16 = alloca i8, align 1
  store i8* %0, i8** %4, align 8, !tbaa !3
  store i8* %1, i8** %5, align 8, !tbaa !3
  store %"struct.std::__1::__less"* %2, %"struct.std::__1::__less"** %6, align 8, !tbaa !7
  %17 = bitcast i64* %7 to i8*
  call void @llvm.lifetime.start.p0i8(i64 8, i8* %17) #6
  store i64 30, i64* %7, align 8, !tbaa !8
  br label %18

; <label>:18:                                     ; preds = %341, %338, %3
  br label %19

; <label>:19:                                     ; preds = %18
  br label %20

; <label>:20:                                     ; preds = %338, %19
  %21 = bitcast i64* %8 to i8*
  call void @llvm.lifetime.start.p0i8(i64 8, i8* %21) #6
  %22 = load i8*, i8** %5, align 8, !tbaa !3
  %23 = load i8*, i8** %4, align 8, !tbaa !3
  %24 = ptrtoint i8* %22 to i64
  %25 = ptrtoint i8* %23 to i64
  %26 = sub i64 %24, %25
  store i64 %26, i64* %8, align 8, !tbaa !8
  %27 = load i64, i64* %8, align 8, !tbaa !8
  switch i64 %27, label %69 [
    i64 0, label %28
    i64 1, label %28
    i64 2, label %29
    i64 3, label %39
    i64 4, label %47
    i64 5, label %57
  ]

; <label>:28:                                     ; preds = %20, %20
  store i32 1, i32* %9, align 4
  br label %338

; <label>:29:                                     ; preds = %20
  %30 = load %"struct.std::__1::__less"*, %"struct.std::__1::__less"** %6, align 8
  %31 = load i8*, i8** %5, align 8, !tbaa !3
  %32 = getelementptr i8, i8* %31, i32 -1
  store i8* %32, i8** %5, align 8, !tbaa !3
  %33 = load i8*, i8** %4, align 8, !tbaa !3
  %34 = call zeroext i1 @_ZNKSt3__16__lessIccEclERKcS3_(%"struct.std::__1::__less"* %30, i8* dereferenceable(1) %32, i8* dereferenceable(1) %33)
  br i1 %34, label %35, label %38

; <label>:35:                                     ; preds = %29
  %36 = load i8*, i8** %4, align 8, !tbaa !3
  %37 = load i8*, i8** %5, align 8, !tbaa !3
  call void @_ZNSt3__14swapIcEENS_9enable_ifIXaasr21is_move_constructibleIT_EE5valuesr18is_move_assignableIS2_EE5valueEvE4typeERS2_S5_(i8* dereferenceable(1) %36, i8* dereferenceable(1) %37) #6
  br label %38

; <label>:38:                                     ; preds = %35, %29
  store i32 1, i32* %9, align 4
  br label %338

; <label>:39:                                     ; preds = %20
  %40 = load i8*, i8** %4, align 8, !tbaa !3
  %41 = load i8*, i8** %4, align 8, !tbaa !3
  %42 = getelementptr i8, i8* %41, i64 1
  %43 = load i8*, i8** %5, align 8, !tbaa !3
  %44 = getelementptr i8, i8* %43, i32 -1
  store i8* %44, i8** %5, align 8, !tbaa !3
  %45 = load %"struct.std::__1::__less"*, %"struct.std::__1::__less"** %6, align 8
  %46 = call i32 @_ZNSt3__17__sort3IRNS_6__lessIccEEPcEEjT0_S5_S5_T_(i8* %40, i8* %42, i8* %44, %"struct.std::__1::__less"* dereferenceable(1) %45)
  store i32 1, i32* %9, align 4
  br label %338

; <label>:47:                                     ; preds = %20
  %48 = load i8*, i8** %4, align 8, !tbaa !3
  %49 = load i8*, i8** %4, align 8, !tbaa !3
  %50 = getelementptr i8, i8* %49, i64 1
  %51 = load i8*, i8** %4, align 8, !tbaa !3
  %52 = getelementptr i8, i8* %51, i64 2
  %53 = load i8*, i8** %5, align 8, !tbaa !3
  %54 = getelementptr i8, i8* %53, i32 -1
  store i8* %54, i8** %5, align 8, !tbaa !3
  %55 = load %"struct.std::__1::__less"*, %"struct.std::__1::__less"** %6, align 8
  %56 = call i32 @_ZNSt3__17__sort4IRNS_6__lessIccEEPcEEjT0_S5_S5_S5_T_(i8* %48, i8* %50, i8* %52, i8* %54, %"struct.std::__1::__less"* dereferenceable(1) %55)
  store i32 1, i32* %9, align 4
  br label %338

; <label>:57:                                     ; preds = %20
  %58 = load i8*, i8** %4, align 8, !tbaa !3
  %59 = load i8*, i8** %4, align 8, !tbaa !3
  %60 = getelementptr i8, i8* %59, i64 1
  %61 = load i8*, i8** %4, align 8, !tbaa !3
  %62 = getelementptr i8, i8* %61, i64 2
  %63 = load i8*, i8** %4, align 8, !tbaa !3
  %64 = getelementptr i8, i8* %63, i64 3
  %65 = load i8*, i8** %5, align 8, !tbaa !3
  %66 = getelementptr i8, i8* %65, i32 -1
  store i8* %66, i8** %5, align 8, !tbaa !3
  %67 = load %"struct.std::__1::__less"*, %"struct.std::__1::__less"** %6, align 8
  %68 = call i32 @_ZNSt3__17__sort5IRNS_6__lessIccEEPcEEjT0_S5_S5_S5_S5_T_(i8* %58, i8* %60, i8* %62, i8* %64, i8* %66, %"struct.std::__1::__less"* dereferenceable(1) %67)
  store i32 1, i32* %9, align 4
  br label %338

; <label>:69:                                     ; preds = %20
  %70 = load i64, i64* %8, align 8, !tbaa !8
  %71 = icmp sle i64 %70, 30
  br i1 %71, label %72, label %76

; <label>:72:                                     ; preds = %69
  %73 = load i8*, i8** %4, align 8, !tbaa !3
  %74 = load i8*, i8** %5, align 8, !tbaa !3
  %75 = load %"struct.std::__1::__less"*, %"struct.std::__1::__less"** %6, align 8
  call void @_ZNSt3__118__insertion_sort_3IRNS_6__lessIccEEPcEEvT0_S5_T_(i8* %73, i8* %74, %"struct.std::__1::__less"* dereferenceable(1) %75)
  store i32 1, i32* %9, align 4
  br label %338

; <label>:76:                                     ; preds = %69
  %77 = bitcast i8** %10 to i8*
  call void @llvm.lifetime.start.p0i8(i64 8, i8* %77) #6
  %78 = load i8*, i8** %4, align 8, !tbaa !3
  store i8* %78, i8** %10, align 8, !tbaa !3
  %79 = bitcast i8** %11 to i8*
  call void @llvm.lifetime.start.p0i8(i64 8, i8* %79) #6
  %80 = load i8*, i8** %5, align 8, !tbaa !3
  store i8* %80, i8** %11, align 8, !tbaa !3
  %81 = load i8*, i8** %11, align 8, !tbaa !3
  %82 = getelementptr i8, i8* %81, i32 -1
  store i8* %82, i8** %11, align 8, !tbaa !3
  %83 = bitcast i32* %12 to i8*
  call void @llvm.lifetime.start.p0i8(i64 4, i8* %83) #6
  %84 = bitcast i64* %13 to i8*
  call void @llvm.lifetime.start.p0i8(i64 8, i8* %84) #6
  %85 = load i64, i64* %8, align 8, !tbaa !8
  %86 = icmp sge i64 %85, 1000
  br i1 %86, label %87, label %106

; <label>:87:                                     ; preds = %76
  %88 = load i64, i64* %8, align 8, !tbaa !8
  %89 = sdiv i64 %88, 2
  store i64 %89, i64* %13, align 8, !tbaa !8
  %90 = load i64, i64* %13, align 8, !tbaa !8
  %91 = load i8*, i8** %10, align 8, !tbaa !3
  %92 = getelementptr i8, i8* %91, i64 %90
  store i8* %92, i8** %10, align 8, !tbaa !3
  %93 = load i64, i64* %13, align 8, !tbaa !8
  %94 = sdiv i64 %93, 2
  store i64 %94, i64* %13, align 8, !tbaa !8
  %95 = load i8*, i8** %4, align 8, !tbaa !3
  %96 = load i8*, i8** %4, align 8, !tbaa !3
  %97 = load i64, i64* %13, align 8, !tbaa !8
  %98 = getelementptr i8, i8* %96, i64 %97
  %99 = load i8*, i8** %10, align 8, !tbaa !3
  %100 = load i8*, i8** %10, align 8, !tbaa !3
  %101 = load i64, i64* %13, align 8, !tbaa !8
  %102 = getelementptr i8, i8* %100, i64 %101
  %103 = load i8*, i8** %11, align 8, !tbaa !3
  %104 = load %"struct.std::__1::__less"*, %"struct.std::__1::__less"** %6, align 8
  %105 = call i32 @_ZNSt3__17__sort5IRNS_6__lessIccEEPcEEjT0_S5_S5_S5_S5_T_(i8* %95, i8* %98, i8* %99, i8* %102, i8* %103, %"struct.std::__1::__less"* dereferenceable(1) %104)
  store i32 %105, i32* %12, align 4, !tbaa !10
  br label %117

; <label>:106:                                    ; preds = %76
  %107 = load i64, i64* %8, align 8, !tbaa !8
  %108 = sdiv i64 %107, 2
  store i64 %108, i64* %13, align 8, !tbaa !8
  %109 = load i64, i64* %13, align 8, !tbaa !8
  %110 = load i8*, i8** %10, align 8, !tbaa !3
  %111 = getelementptr i8, i8* %110, i64 %109
  store i8* %111, i8** %10, align 8, !tbaa !3
  %112 = load i8*, i8** %4, align 8, !tbaa !3
  %113 = load i8*, i8** %10, align 8, !tbaa !3
  %114 = load i8*, i8** %11, align 8, !tbaa !3
  %115 = load %"struct.std::__1::__less"*, %"struct.std::__1::__less"** %6, align 8
  %116 = call i32 @_ZNSt3__17__sort3IRNS_6__lessIccEEPcEEjT0_S5_S5_T_(i8* %112, i8* %113, i8* %114, %"struct.std::__1::__less"* dereferenceable(1) %115)
  store i32 %116, i32* %12, align 4, !tbaa !10
  br label %117

; <label>:117:                                    ; preds = %106, %87
  %118 = bitcast i64* %13 to i8*
  call void @llvm.lifetime.end.p0i8(i64 8, i8* %118) #6
  %119 = bitcast i8** %14 to i8*
  call void @llvm.lifetime.start.p0i8(i64 8, i8* %119) #6
  %120 = load i8*, i8** %4, align 8, !tbaa !3
  store i8* %120, i8** %14, align 8, !tbaa !3
  %121 = bitcast i8** %15 to i8*
  call void @llvm.lifetime.start.p0i8(i64 8, i8* %121) #6
  %122 = load i8*, i8** %11, align 8, !tbaa !3
  store i8* %122, i8** %15, align 8, !tbaa !3
  %123 = load %"struct.std::__1::__less"*, %"struct.std::__1::__less"** %6, align 8
  %124 = load i8*, i8** %14, align 8, !tbaa !3
  %125 = load i8*, i8** %10, align 8, !tbaa !3
  %126 = call zeroext i1 @_ZNKSt3__16__lessIccEclERKcS3_(%"struct.std::__1::__less"* %123, i8* dereferenceable(1) %124, i8* dereferenceable(1) %125)
  br i1 %126, label %217, label %127

; <label>:127:                                    ; preds = %117
  br label %128

; <label>:128:                                    ; preds = %215, %127
  br label %129

; <label>:129:                                    ; preds = %128
  %130 = load i8*, i8** %14, align 8, !tbaa !3
  %131 = load i8*, i8** %15, align 8, !tbaa !3
  %132 = getelementptr i8, i8* %131, i32 -1
  store i8* %132, i8** %15, align 8, !tbaa !3
  %133 = icmp eq i8* %130, %132
  br i1 %133, label %134, label %205

; <label>:134:                                    ; preds = %129
  %135 = load i8*, i8** %14, align 8, !tbaa !3
  %136 = getelementptr i8, i8* %135, i32 1
  store i8* %136, i8** %14, align 8, !tbaa !3
  %137 = load i8*, i8** %5, align 8, !tbaa !3
  store i8* %137, i8** %15, align 8, !tbaa !3
  %138 = load %"struct.std::__1::__less"*, %"struct.std::__1::__less"** %6, align 8
  %139 = load i8*, i8** %4, align 8, !tbaa !3
  %140 = load i8*, i8** %15, align 8, !tbaa !3
  %141 = getelementptr i8, i8* %140, i32 -1
  store i8* %141, i8** %15, align 8, !tbaa !3
  %142 = call zeroext i1 @_ZNKSt3__16__lessIccEclERKcS3_(%"struct.std::__1::__less"* %138, i8* dereferenceable(1) %139, i8* dereferenceable(1) %141)
  br i1 %142, label %166, label %143

; <label>:143:                                    ; preds = %134
  br label %144

; <label>:144:                                    ; preds = %162, %143
  br label %145

; <label>:145:                                    ; preds = %144
  %146 = load i8*, i8** %14, align 8, !tbaa !3
  %147 = load i8*, i8** %15, align 8, !tbaa !3
  %148 = icmp eq i8* %146, %147
  br i1 %148, label %149, label %150

; <label>:149:                                    ; preds = %145
  store i32 1, i32* %9, align 4
  br label %332

; <label>:150:                                    ; preds = %145
  %151 = load %"struct.std::__1::__less"*, %"struct.std::__1::__less"** %6, align 8
  %152 = load i8*, i8** %4, align 8, !tbaa !3
  %153 = load i8*, i8** %14, align 8, !tbaa !3
  %154 = call zeroext i1 @_ZNKSt3__16__lessIccEclERKcS3_(%"struct.std::__1::__less"* %151, i8* dereferenceable(1) %152, i8* dereferenceable(1) %153)
  br i1 %154, label %155, label %162

; <label>:155:                                    ; preds = %150
  %156 = load i8*, i8** %14, align 8, !tbaa !3
  %157 = load i8*, i8** %15, align 8, !tbaa !3
  call void @_ZNSt3__14swapIcEENS_9enable_ifIXaasr21is_move_constructibleIT_EE5valuesr18is_move_assignableIS2_EE5valueEvE4typeERS2_S5_(i8* dereferenceable(1) %156, i8* dereferenceable(1) %157) #6
  %158 = load i32, i32* %12, align 4, !tbaa !10
  %159 = add i32 %158, 1
  store i32 %159, i32* %12, align 4, !tbaa !10
  %160 = load i8*, i8** %14, align 8, !tbaa !3
  %161 = getelementptr i8, i8* %160, i32 1
  store i8* %161, i8** %14, align 8, !tbaa !3
  br label %165

; <label>:162:                                    ; preds = %150
  %163 = load i8*, i8** %14, align 8, !tbaa !3
  %164 = getelementptr i8, i8* %163, i32 1
  store i8* %164, i8** %14, align 8, !tbaa !3
  br label %144

; <label>:165:                                    ; preds = %155
  br label %166

; <label>:166:                                    ; preds = %165, %134
  %167 = load i8*, i8** %14, align 8, !tbaa !3
  %168 = load i8*, i8** %15, align 8, !tbaa !3
  %169 = icmp eq i8* %167, %168
  br i1 %169, label %170, label %171

; <label>:170:                                    ; preds = %166
  store i32 1, i32* %9, align 4
  br label %332

; <label>:171:                                    ; preds = %166
  br label %172

; <label>:172:                                    ; preds = %196, %171
  br label %173

; <label>:173:                                    ; preds = %172
  br label %174

; <label>:174:                                    ; preds = %180, %173
  %175 = load %"struct.std::__1::__less"*, %"struct.std::__1::__less"** %6, align 8
  %176 = load i8*, i8** %4, align 8, !tbaa !3
  %177 = load i8*, i8** %14, align 8, !tbaa !3
  %178 = call zeroext i1 @_ZNKSt3__16__lessIccEclERKcS3_(%"struct.std::__1::__less"* %175, i8* dereferenceable(1) %176, i8* dereferenceable(1) %177)
  %179 = xor i1 %178, true
  br i1 %179, label %180, label %183

; <label>:180:                                    ; preds = %174
  %181 = load i8*, i8** %14, align 8, !tbaa !3
  %182 = getelementptr i8, i8* %181, i32 1
  store i8* %182, i8** %14, align 8, !tbaa !3
  br label %174

; <label>:183:                                    ; preds = %174
  br label %184

; <label>:184:                                    ; preds = %190, %183
  %185 = load %"struct.std::__1::__less"*, %"struct.std::__1::__less"** %6, align 8
  %186 = load i8*, i8** %4, align 8, !tbaa !3
  %187 = load i8*, i8** %15, align 8, !tbaa !3
  %188 = getelementptr i8, i8* %187, i32 -1
  store i8* %188, i8** %15, align 8, !tbaa !3
  %189 = call zeroext i1 @_ZNKSt3__16__lessIccEclERKcS3_(%"struct.std::__1::__less"* %185, i8* dereferenceable(1) %186, i8* dereferenceable(1) %188)
  br i1 %189, label %190, label %191

; <label>:190:                                    ; preds = %184
  br label %184

; <label>:191:                                    ; preds = %184
  %192 = load i8*, i8** %14, align 8, !tbaa !3
  %193 = load i8*, i8** %15, align 8, !tbaa !3
  %194 = icmp uge i8* %192, %193
  br i1 %194, label %195, label %196

; <label>:195:                                    ; preds = %191
  br label %203

; <label>:196:                                    ; preds = %191
  %197 = load i8*, i8** %14, align 8, !tbaa !3
  %198 = load i8*, i8** %15, align 8, !tbaa !3
  call void @_ZNSt3__14swapIcEENS_9enable_ifIXaasr21is_move_constructibleIT_EE5valuesr18is_move_assignableIS2_EE5valueEvE4typeERS2_S5_(i8* dereferenceable(1) %197, i8* dereferenceable(1) %198) #6
  %199 = load i32, i32* %12, align 4, !tbaa !10
  %200 = add i32 %199, 1
  store i32 %200, i32* %12, align 4, !tbaa !10
  %201 = load i8*, i8** %14, align 8, !tbaa !3
  %202 = getelementptr i8, i8* %201, i32 1
  store i8* %202, i8** %14, align 8, !tbaa !3
  br label %172

; <label>:203:                                    ; preds = %195
  %204 = load i8*, i8** %14, align 8, !tbaa !3
  store i8* %204, i8** %4, align 8, !tbaa !3
  store i32 4, i32* %9, align 4
  br label %332

; <label>:205:                                    ; preds = %129
  %206 = load %"struct.std::__1::__less"*, %"struct.std::__1::__less"** %6, align 8
  %207 = load i8*, i8** %15, align 8, !tbaa !3
  %208 = load i8*, i8** %10, align 8, !tbaa !3
  %209 = call zeroext i1 @_ZNKSt3__16__lessIccEclERKcS3_(%"struct.std::__1::__less"* %206, i8* dereferenceable(1) %207, i8* dereferenceable(1) %208)
  br i1 %209, label %210, label %215

; <label>:210:                                    ; preds = %205
  %211 = load i8*, i8** %14, align 8, !tbaa !3
  %212 = load i8*, i8** %15, align 8, !tbaa !3
  call void @_ZNSt3__14swapIcEENS_9enable_ifIXaasr21is_move_constructibleIT_EE5valuesr18is_move_assignableIS2_EE5valueEvE4typeERS2_S5_(i8* dereferenceable(1) %211, i8* dereferenceable(1) %212) #6
  %213 = load i32, i32* %12, align 4, !tbaa !10
  %214 = add i32 %213, 1
  store i32 %214, i32* %12, align 4, !tbaa !10
  br label %216

; <label>:215:                                    ; preds = %205
  br label %128

; <label>:216:                                    ; preds = %210
  br label %217

; <label>:217:                                    ; preds = %216, %117
  %218 = load i8*, i8** %14, align 8, !tbaa !3
  %219 = getelementptr i8, i8* %218, i32 1
  store i8* %219, i8** %14, align 8, !tbaa !3
  %220 = load i8*, i8** %14, align 8, !tbaa !3
  %221 = load i8*, i8** %15, align 8, !tbaa !3
  %222 = icmp ult i8* %220, %221
  br i1 %222, label %223, label %262

; <label>:223:                                    ; preds = %217
  br label %224

; <label>:224:                                    ; preds = %258, %223
  br label %225

; <label>:225:                                    ; preds = %224
  br label %226

; <label>:226:                                    ; preds = %231, %225
  %227 = load %"struct.std::__1::__less"*, %"struct.std::__1::__less"** %6, align 8
  %228 = load i8*, i8** %14, align 8, !tbaa !3
  %229 = load i8*, i8** %10, align 8, !tbaa !3
  %230 = call zeroext i1 @_ZNKSt3__16__lessIccEclERKcS3_(%"struct.std::__1::__less"* %227, i8* dereferenceable(1) %228, i8* dereferenceable(1) %229)
  br i1 %230, label %231, label %234

; <label>:231:                                    ; preds = %226
  %232 = load i8*, i8** %14, align 8, !tbaa !3
  %233 = getelementptr i8, i8* %232, i32 1
  store i8* %233, i8** %14, align 8, !tbaa !3
  br label %226

; <label>:234:                                    ; preds = %226
  br label %235

; <label>:235:                                    ; preds = %242, %234
  %236 = load %"struct.std::__1::__less"*, %"struct.std::__1::__less"** %6, align 8
  %237 = load i8*, i8** %15, align 8, !tbaa !3
  %238 = getelementptr i8, i8* %237, i32 -1
  store i8* %238, i8** %15, align 8, !tbaa !3
  %239 = load i8*, i8** %10, align 8, !tbaa !3
  %240 = call zeroext i1 @_ZNKSt3__16__lessIccEclERKcS3_(%"struct.std::__1::__less"* %236, i8* dereferenceable(1) %238, i8* dereferenceable(1) %239)
  %241 = xor i1 %240, true
  br i1 %241, label %242, label %243

; <label>:242:                                    ; preds = %235
  br label %235

; <label>:243:                                    ; preds = %235
  %244 = load i8*, i8** %14, align 8, !tbaa !3
  %245 = load i8*, i8** %15, align 8, !tbaa !3
  %246 = icmp ugt i8* %244, %245
  br i1 %246, label %247, label %248

; <label>:247:                                    ; preds = %243
  br label %261

; <label>:248:                                    ; preds = %243
  %249 = load i8*, i8** %14, align 8, !tbaa !3
  %250 = load i8*, i8** %15, align 8, !tbaa !3
  call void @_ZNSt3__14swapIcEENS_9enable_ifIXaasr21is_move_constructibleIT_EE5valuesr18is_move_assignableIS2_EE5valueEvE4typeERS2_S5_(i8* dereferenceable(1) %249, i8* dereferenceable(1) %250) #6
  %251 = load i32, i32* %12, align 4, !tbaa !10
  %252 = add i32 %251, 1
  store i32 %252, i32* %12, align 4, !tbaa !10
  %253 = load i8*, i8** %10, align 8, !tbaa !3
  %254 = load i8*, i8** %14, align 8, !tbaa !3
  %255 = icmp eq i8* %253, %254
  br i1 %255, label %256, label %258

; <label>:256:                                    ; preds = %248
  %257 = load i8*, i8** %15, align 8, !tbaa !3
  store i8* %257, i8** %10, align 8, !tbaa !3
  br label %258

; <label>:258:                                    ; preds = %256, %248
  %259 = load i8*, i8** %14, align 8, !tbaa !3
  %260 = getelementptr i8, i8* %259, i32 1
  store i8* %260, i8** %14, align 8, !tbaa !3
  br label %224

; <label>:261:                                    ; preds = %247
  br label %262

; <label>:262:                                    ; preds = %261, %217
  %263 = load i8*, i8** %14, align 8, !tbaa !3
  %264 = load i8*, i8** %10, align 8, !tbaa !3
  %265 = icmp ne i8* %263, %264
  br i1 %265, label %266, label %276

; <label>:266:                                    ; preds = %262
  %267 = load %"struct.std::__1::__less"*, %"struct.std::__1::__less"** %6, align 8
  %268 = load i8*, i8** %10, align 8, !tbaa !3
  %269 = load i8*, i8** %14, align 8, !tbaa !3
  %270 = call zeroext i1 @_ZNKSt3__16__lessIccEclERKcS3_(%"struct.std::__1::__less"* %267, i8* dereferenceable(1) %268, i8* dereferenceable(1) %269)
  br i1 %270, label %271, label %276

; <label>:271:                                    ; preds = %266
  %272 = load i8*, i8** %14, align 8, !tbaa !3
  %273 = load i8*, i8** %10, align 8, !tbaa !3
  call void @_ZNSt3__14swapIcEENS_9enable_ifIXaasr21is_move_constructibleIT_EE5valuesr18is_move_assignableIS2_EE5valueEvE4typeERS2_S5_(i8* dereferenceable(1) %272, i8* dereferenceable(1) %273) #6
  %274 = load i32, i32* %12, align 4, !tbaa !10
  %275 = add i32 %274, 1
  store i32 %275, i32* %12, align 4, !tbaa !10
  br label %276

; <label>:276:                                    ; preds = %271, %266, %262
  %277 = load i32, i32* %12, align 4, !tbaa !10
  %278 = icmp eq i32 %277, 0
  br i1 %278, label %279, label %307

; <label>:279:                                    ; preds = %276
  call void @llvm.lifetime.start.p0i8(i64 1, i8* %16) #6
  %280 = load i8*, i8** %4, align 8, !tbaa !3
  %281 = load i8*, i8** %14, align 8, !tbaa !3
  %282 = load %"struct.std::__1::__less"*, %"struct.std::__1::__less"** %6, align 8
  %283 = call zeroext i1 @_ZNSt3__127__insertion_sort_incompleteIRNS_6__lessIccEEPcEEbT0_S5_T_(i8* %280, i8* %281, %"struct.std::__1::__less"* dereferenceable(1) %282)
  %284 = zext i1 %283 to i8
  store i8 %284, i8* %16, align 1, !tbaa !12
  %285 = load i8*, i8** %14, align 8, !tbaa !3
  %286 = getelementptr i8, i8* %285, i64 1
  %287 = load i8*, i8** %5, align 8, !tbaa !3
  %288 = load %"struct.std::__1::__less"*, %"struct.std::__1::__less"** %6, align 8
  %289 = call zeroext i1 @_ZNSt3__127__insertion_sort_incompleteIRNS_6__lessIccEEPcEEbT0_S5_T_(i8* %286, i8* %287, %"struct.std::__1::__less"* dereferenceable(1) %288)
  br i1 %289, label %290, label %296

; <label>:290:                                    ; preds = %279
  %291 = load i8, i8* %16, align 1, !tbaa !12, !range !14
  %292 = trunc i8 %291 to i1
  br i1 %292, label %293, label %294

; <label>:293:                                    ; preds = %290
  store i32 1, i32* %9, align 4
  br label %304

; <label>:294:                                    ; preds = %290
  %295 = load i8*, i8** %14, align 8, !tbaa !3
  store i8* %295, i8** %5, align 8, !tbaa !3
  store i32 2, i32* %9, align 4
  br label %304

; <label>:296:                                    ; preds = %279
  %297 = load i8, i8* %16, align 1, !tbaa !12, !range !14
  %298 = trunc i8 %297 to i1
  br i1 %298, label %299, label %302

; <label>:299:                                    ; preds = %296
  %300 = load i8*, i8** %14, align 8, !tbaa !3
  %301 = getelementptr i8, i8* %300, i32 1
  store i8* %301, i8** %14, align 8, !tbaa !3
  store i8* %301, i8** %4, align 8, !tbaa !3
  store i32 2, i32* %9, align 4
  br label %304

; <label>:302:                                    ; preds = %296
  br label %303

; <label>:303:                                    ; preds = %302
  store i32 0, i32* %9, align 4
  br label %304

; <label>:304:                                    ; preds = %303, %299, %294, %293
  call void @llvm.lifetime.end.p0i8(i64 1, i8* %16) #6
  %305 = load i32, i32* %9, align 4
  switch i32 %305, label %332 [
    i32 0, label %306
  ]

; <label>:306:                                    ; preds = %304
  br label %307

; <label>:307:                                    ; preds = %306, %276
  %308 = load i8*, i8** %14, align 8, !tbaa !3
  %309 = load i8*, i8** %4, align 8, !tbaa !3
  %310 = ptrtoint i8* %308 to i64
  %311 = ptrtoint i8* %309 to i64
  %312 = sub i64 %310, %311
  %313 = load i8*, i8** %5, align 8, !tbaa !3
  %314 = load i8*, i8** %14, align 8, !tbaa !3
  %315 = ptrtoint i8* %313 to i64
  %316 = ptrtoint i8* %314 to i64
  %317 = sub i64 %315, %316
  %318 = icmp slt i64 %312, %317
  br i1 %318, label %319, label %325

; <label>:319:                                    ; preds = %307
  %320 = load i8*, i8** %4, align 8, !tbaa !3
  %321 = load i8*, i8** %14, align 8, !tbaa !3
  %322 = load %"struct.std::__1::__less"*, %"struct.std::__1::__less"** %6, align 8
  call void @_ZNSt3__16__sortIRNS_6__lessIccEEPcEEvT0_S5_T_(i8* %320, i8* %321, %"struct.std::__1::__less"* dereferenceable(1) %322)
  %323 = load i8*, i8** %14, align 8, !tbaa !3
  %324 = getelementptr i8, i8* %323, i32 1
  store i8* %324, i8** %14, align 8, !tbaa !3
  store i8* %324, i8** %4, align 8, !tbaa !3
  br label %331

; <label>:325:                                    ; preds = %307
  %326 = load i8*, i8** %14, align 8, !tbaa !3
  %327 = getelementptr i8, i8* %326, i64 1
  %328 = load i8*, i8** %5, align 8, !tbaa !3
  %329 = load %"struct.std::__1::__less"*, %"struct.std::__1::__less"** %6, align 8
  call void @_ZNSt3__16__sortIRNS_6__lessIccEEPcEEvT0_S5_T_(i8* %327, i8* %328, %"struct.std::__1::__less"* dereferenceable(1) %329)
  %330 = load i8*, i8** %14, align 8, !tbaa !3
  store i8* %330, i8** %5, align 8, !tbaa !3
  br label %331

; <label>:331:                                    ; preds = %325, %319
  store i32 0, i32* %9, align 4
  br label %332

; <label>:332:                                    ; preds = %331, %304, %203, %170, %149
  %333 = bitcast i8** %15 to i8*
  call void @llvm.lifetime.end.p0i8(i64 8, i8* %333) #6
  %334 = bitcast i8** %14 to i8*
  call void @llvm.lifetime.end.p0i8(i64 8, i8* %334) #6
  %335 = bitcast i32* %12 to i8*
  call void @llvm.lifetime.end.p0i8(i64 4, i8* %335) #6
  %336 = bitcast i8** %11 to i8*
  call void @llvm.lifetime.end.p0i8(i64 8, i8* %336) #6
  %337 = bitcast i8** %10 to i8*
  call void @llvm.lifetime.end.p0i8(i64 8, i8* %337) #6
  br label %338

; <label>:338:                                    ; preds = %332, %72, %57, %47, %39, %38, %28
  %339 = bitcast i64* %8 to i8*
  call void @llvm.lifetime.end.p0i8(i64 8, i8* %339) #6
  %340 = load i32, i32* %9, align 4
  switch i32 %340, label %342 [
    i32 0, label %341
    i32 4, label %20
    i32 2, label %18
  ]

; <label>:341:                                    ; preds = %338
  br label %18

; <label>:342:                                    ; preds = %338
  %343 = bitcast i64* %7 to i8*
  call void @llvm.lifetime.end.p0i8(i64 8, i8* %343) #6
  ret void
}

; Function Attrs: argmemonly nounwind
declare void @llvm.lifetime.start.p0i8(i64, i8* nocapture) #1

; Function Attrs: alwaysinline nounwind sspstrong uwtable
define linkonce_odr hidden zeroext i1 @_ZNKSt3__16__lessIccEclERKcS3_(%"struct.std::__1::__less"*, i8* dereferenceable(1), i8* dereferenceable(1)) #2 comdat align 2 {
  %4 = alloca %"struct.std::__1::__less"*, align 8
  %5 = alloca i8*, align 8
  %6 = alloca i8*, align 8
  store %"struct.std::__1::__less"* %0, %"struct.std::__1::__less"** %4, align 8, !tbaa !3
  store i8* %1, i8** %5, align 8, !tbaa !7
  store i8* %2, i8** %6, align 8, !tbaa !7
  %7 = load %"struct.std::__1::__less"*, %"struct.std::__1::__less"** %4, align 8
  %8 = load i8*, i8** %5, align 8
  %9 = load i8, i8* %8, align 1, !tbaa !7
  %10 = sext i8 %9 to i32
  %11 = load i8*, i8** %6, align 8
  %12 = load i8, i8* %11, align 1, !tbaa !7
  %13 = sext i8 %12 to i32
  %14 = icmp slt i32 %10, %13
  ret i1 %14
}

; Function Attrs: alwaysinline nounwind sspstrong uwtable
define linkonce_odr hidden void @_ZNSt3__14swapIcEENS_9enable_ifIXaasr21is_move_constructibleIT_EE5valuesr18is_move_assignableIS2_EE5valueEvE4typeERS2_S5_(i8* dereferenceable(1), i8* dereferenceable(1)) #2 comdat {
  %3 = alloca i8*, align 8
  %4 = alloca i8*, align 8
  %5 = alloca i8, align 1
  store i8* %0, i8** %3, align 8, !tbaa !7
  store i8* %1, i8** %4, align 8, !tbaa !7
  call void @llvm.lifetime.start.p0i8(i64 1, i8* %5) #6
  %6 = load i8*, i8** %3, align 8
  %7 = call dereferenceable(1) i8* @_ZNSt3__14moveIRcEEONS_16remove_referenceIT_E4typeEOS3_(i8* dereferenceable(1) %6) #6
  %8 = load i8, i8* %7, align 1, !tbaa !7
  store i8 %8, i8* %5, align 1, !tbaa !7
  %9 = load i8*, i8** %4, align 8
  %10 = call dereferenceable(1) i8* @_ZNSt3__14moveIRcEEONS_16remove_referenceIT_E4typeEOS3_(i8* dereferenceable(1) %9) #6
  %11 = load i8, i8* %10, align 1, !tbaa !7
  %12 = load i8*, i8** %3, align 8
  store i8 %11, i8* %12, align 1, !tbaa !7
  %13 = call dereferenceable(1) i8* @_ZNSt3__14moveIRcEEONS_16remove_referenceIT_E4typeEOS3_(i8* dereferenceable(1) %5) #6
  %14 = load i8, i8* %13, align 1, !tbaa !7
  %15 = load i8*, i8** %4, align 8
  store i8 %14, i8* %15, align 1, !tbaa !7
  call void @llvm.lifetime.end.p0i8(i64 1, i8* %5) #6
  ret void
}

; Function Attrs: nounwind sspstrong uwtable
define linkonce_odr i32 @_ZNSt3__17__sort3IRNS_6__lessIccEEPcEEjT0_S5_S5_T_(i8*, i8*, i8*, %"struct.std::__1::__less"* dereferenceable(1)) #3 comdat {
  %5 = alloca i32, align 4
  %6 = alloca i8*, align 8
  %7 = alloca i8*, align 8
  %8 = alloca i8*, align 8
  %9 = alloca %"struct.std::__1::__less"*, align 8
  %10 = alloca i32, align 4
  %11 = alloca i32
  store i8* %0, i8** %6, align 8, !tbaa !3
  store i8* %1, i8** %7, align 8, !tbaa !3
  store i8* %2, i8** %8, align 8, !tbaa !3
  store %"struct.std::__1::__less"* %3, %"struct.std::__1::__less"** %9, align 8, !tbaa !7
  %12 = bitcast i32* %10 to i8*
  call void @llvm.lifetime.start.p0i8(i64 4, i8* %12) #6
  store i32 0, i32* %10, align 4, !tbaa !10
  %13 = load %"struct.std::__1::__less"*, %"struct.std::__1::__less"** %9, align 8
  %14 = load i8*, i8** %7, align 8, !tbaa !3
  %15 = load i8*, i8** %6, align 8, !tbaa !3
  %16 = call zeroext i1 @_ZNKSt3__16__lessIccEclERKcS3_(%"struct.std::__1::__less"* %13, i8* dereferenceable(1) %14, i8* dereferenceable(1) %15)
  br i1 %16, label %36, label %17

; <label>:17:                                     ; preds = %4
  %18 = load %"struct.std::__1::__less"*, %"struct.std::__1::__less"** %9, align 8
  %19 = load i8*, i8** %8, align 8, !tbaa !3
  %20 = load i8*, i8** %7, align 8, !tbaa !3
  %21 = call zeroext i1 @_ZNKSt3__16__lessIccEclERKcS3_(%"struct.std::__1::__less"* %18, i8* dereferenceable(1) %19, i8* dereferenceable(1) %20)
  br i1 %21, label %24, label %22

; <label>:22:                                     ; preds = %17
  %23 = load i32, i32* %10, align 4, !tbaa !10
  store i32 %23, i32* %5, align 4
  store i32 1, i32* %11, align 4
  br label %57

; <label>:24:                                     ; preds = %17
  %25 = load i8*, i8** %7, align 8, !tbaa !3
  %26 = load i8*, i8** %8, align 8, !tbaa !3
  call void @_ZNSt3__14swapIcEENS_9enable_ifIXaasr21is_move_constructibleIT_EE5valuesr18is_move_assignableIS2_EE5valueEvE4typeERS2_S5_(i8* dereferenceable(1) %25, i8* dereferenceable(1) %26) #6
  store i32 1, i32* %10, align 4, !tbaa !10
  %27 = load %"struct.std::__1::__less"*, %"struct.std::__1::__less"** %9, align 8
  %28 = load i8*, i8** %7, align 8, !tbaa !3
  %29 = load i8*, i8** %6, align 8, !tbaa !3
  %30 = call zeroext i1 @_ZNKSt3__16__lessIccEclERKcS3_(%"struct.std::__1::__less"* %27, i8* dereferenceable(1) %28, i8* dereferenceable(1) %29)
  br i1 %30, label %31, label %34

; <label>:31:                                     ; preds = %24
  %32 = load i8*, i8** %6, align 8, !tbaa !3
  %33 = load i8*, i8** %7, align 8, !tbaa !3
  call void @_ZNSt3__14swapIcEENS_9enable_ifIXaasr21is_move_constructibleIT_EE5valuesr18is_move_assignableIS2_EE5valueEvE4typeERS2_S5_(i8* dereferenceable(1) %32, i8* dereferenceable(1) %33) #6
  store i32 2, i32* %10, align 4, !tbaa !10
  br label %34

; <label>:34:                                     ; preds = %31, %24
  %35 = load i32, i32* %10, align 4, !tbaa !10
  store i32 %35, i32* %5, align 4
  store i32 1, i32* %11, align 4
  br label %57

; <label>:36:                                     ; preds = %4
  %37 = load %"struct.std::__1::__less"*, %"struct.std::__1::__less"** %9, align 8
  %38 = load i8*, i8** %8, align 8, !tbaa !3
  %39 = load i8*, i8** %7, align 8, !tbaa !3
  %40 = call zeroext i1 @_ZNKSt3__16__lessIccEclERKcS3_(%"struct.std::__1::__less"* %37, i8* dereferenceable(1) %38, i8* dereferenceable(1) %39)
  br i1 %40, label %41, label %45

; <label>:41:                                     ; preds = %36
  %42 = load i8*, i8** %6, align 8, !tbaa !3
  %43 = load i8*, i8** %8, align 8, !tbaa !3
  call void @_ZNSt3__14swapIcEENS_9enable_ifIXaasr21is_move_constructibleIT_EE5valuesr18is_move_assignableIS2_EE5valueEvE4typeERS2_S5_(i8* dereferenceable(1) %42, i8* dereferenceable(1) %43) #6
  store i32 1, i32* %10, align 4, !tbaa !10
  %44 = load i32, i32* %10, align 4, !tbaa !10
  store i32 %44, i32* %5, align 4
  store i32 1, i32* %11, align 4
  br label %57

; <label>:45:                                     ; preds = %36
  %46 = load i8*, i8** %6, align 8, !tbaa !3
  %47 = load i8*, i8** %7, align 8, !tbaa !3
  call void @_ZNSt3__14swapIcEENS_9enable_ifIXaasr21is_move_constructibleIT_EE5valuesr18is_move_assignableIS2_EE5valueEvE4typeERS2_S5_(i8* dereferenceable(1) %46, i8* dereferenceable(1) %47) #6
  store i32 1, i32* %10, align 4, !tbaa !10
  %48 = load %"struct.std::__1::__less"*, %"struct.std::__1::__less"** %9, align 8
  %49 = load i8*, i8** %8, align 8, !tbaa !3
  %50 = load i8*, i8** %7, align 8, !tbaa !3
  %51 = call zeroext i1 @_ZNKSt3__16__lessIccEclERKcS3_(%"struct.std::__1::__less"* %48, i8* dereferenceable(1) %49, i8* dereferenceable(1) %50)
  br i1 %51, label %52, label %55

; <label>:52:                                     ; preds = %45
  %53 = load i8*, i8** %7, align 8, !tbaa !3
  %54 = load i8*, i8** %8, align 8, !tbaa !3
  call void @_ZNSt3__14swapIcEENS_9enable_ifIXaasr21is_move_constructibleIT_EE5valuesr18is_move_assignableIS2_EE5valueEvE4typeERS2_S5_(i8* dereferenceable(1) %53, i8* dereferenceable(1) %54) #6
  store i32 2, i32* %10, align 4, !tbaa !10
  br label %55

; <label>:55:                                     ; preds = %52, %45
  %56 = load i32, i32* %10, align 4, !tbaa !10
  store i32 %56, i32* %5, align 4
  store i32 1, i32* %11, align 4
  br label %57

; <label>:57:                                     ; preds = %55, %41, %34, %22
  %58 = bitcast i32* %10 to i8*
  call void @llvm.lifetime.end.p0i8(i64 4, i8* %58) #6
  %59 = load i32, i32* %5, align 4
  ret i32 %59
}

; Function Attrs: nounwind sspstrong uwtable
define linkonce_odr i32 @_ZNSt3__17__sort4IRNS_6__lessIccEEPcEEjT0_S5_S5_S5_T_(i8*, i8*, i8*, i8*, %"struct.std::__1::__less"* dereferenceable(1)) #3 comdat {
  %6 = alloca i8*, align 8
  %7 = alloca i8*, align 8
  %8 = alloca i8*, align 8
  %9 = alloca i8*, align 8
  %10 = alloca %"struct.std::__1::__less"*, align 8
  %11 = alloca i32, align 4
  store i8* %0, i8** %6, align 8, !tbaa !3
  store i8* %1, i8** %7, align 8, !tbaa !3
  store i8* %2, i8** %8, align 8, !tbaa !3
  store i8* %3, i8** %9, align 8, !tbaa !3
  store %"struct.std::__1::__less"* %4, %"struct.std::__1::__less"** %10, align 8, !tbaa !7
  %12 = bitcast i32* %11 to i8*
  call void @llvm.lifetime.start.p0i8(i64 4, i8* %12) #6
  %13 = load i8*, i8** %6, align 8, !tbaa !3
  %14 = load i8*, i8** %7, align 8, !tbaa !3
  %15 = load i8*, i8** %8, align 8, !tbaa !3
  %16 = load %"struct.std::__1::__less"*, %"struct.std::__1::__less"** %10, align 8
  %17 = call i32 @_ZNSt3__17__sort3IRNS_6__lessIccEEPcEEjT0_S5_S5_T_(i8* %13, i8* %14, i8* %15, %"struct.std::__1::__less"* dereferenceable(1) %16)
  store i32 %17, i32* %11, align 4, !tbaa !10
  %18 = load %"struct.std::__1::__less"*, %"struct.std::__1::__less"** %10, align 8
  %19 = load i8*, i8** %9, align 8, !tbaa !3
  %20 = load i8*, i8** %8, align 8, !tbaa !3
  %21 = call zeroext i1 @_ZNKSt3__16__lessIccEclERKcS3_(%"struct.std::__1::__less"* %18, i8* dereferenceable(1) %19, i8* dereferenceable(1) %20)
  br i1 %21, label %22, label %47

; <label>:22:                                     ; preds = %5
  %23 = load i8*, i8** %8, align 8, !tbaa !3
  %24 = load i8*, i8** %9, align 8, !tbaa !3
  call void @_ZNSt3__14swapIcEENS_9enable_ifIXaasr21is_move_constructibleIT_EE5valuesr18is_move_assignableIS2_EE5valueEvE4typeERS2_S5_(i8* dereferenceable(1) %23, i8* dereferenceable(1) %24) #6
  %25 = load i32, i32* %11, align 4, !tbaa !10
  %26 = add i32 %25, 1
  store i32 %26, i32* %11, align 4, !tbaa !10
  %27 = load %"struct.std::__1::__less"*, %"struct.std::__1::__less"** %10, align 8
  %28 = load i8*, i8** %8, align 8, !tbaa !3
  %29 = load i8*, i8** %7, align 8, !tbaa !3
  %30 = call zeroext i1 @_ZNKSt3__16__lessIccEclERKcS3_(%"struct.std::__1::__less"* %27, i8* dereferenceable(1) %28, i8* dereferenceable(1) %29)
  br i1 %30, label %31, label %46

; <label>:31:                                     ; preds = %22
  %32 = load i8*, i8** %7, align 8, !tbaa !3
  %33 = load i8*, i8** %8, align 8, !tbaa !3
  call void @_ZNSt3__14swapIcEENS_9enable_ifIXaasr21is_move_constructibleIT_EE5valuesr18is_move_assignableIS2_EE5valueEvE4typeERS2_S5_(i8* dereferenceable(1) %32, i8* dereferenceable(1) %33) #6
  %34 = load i32, i32* %11, align 4, !tbaa !10
  %35 = add i32 %34, 1
  store i32 %35, i32* %11, align 4, !tbaa !10
  %36 = load %"struct.std::__1::__less"*, %"struct.std::__1::__less"** %10, align 8
  %37 = load i8*, i8** %7, align 8, !tbaa !3
  %38 = load i8*, i8** %6, align 8, !tbaa !3
  %39 = call zeroext i1 @_ZNKSt3__16__lessIccEclERKcS3_(%"struct.std::__1::__less"* %36, i8* dereferenceable(1) %37, i8* dereferenceable(1) %38)
  br i1 %39, label %40, label %45

; <label>:40:                                     ; preds = %31
  %41 = load i8*, i8** %6, align 8, !tbaa !3
  %42 = load i8*, i8** %7, align 8, !tbaa !3
  call void @_ZNSt3__14swapIcEENS_9enable_ifIXaasr21is_move_constructibleIT_EE5valuesr18is_move_assignableIS2_EE5valueEvE4typeERS2_S5_(i8* dereferenceable(1) %41, i8* dereferenceable(1) %42) #6
  %43 = load i32, i32* %11, align 4, !tbaa !10
  %44 = add i32 %43, 1
  store i32 %44, i32* %11, align 4, !tbaa !10
  br label %45

; <label>:45:                                     ; preds = %40, %31
  br label %46

; <label>:46:                                     ; preds = %45, %22
  br label %47

; <label>:47:                                     ; preds = %46, %5
  %48 = load i32, i32* %11, align 4, !tbaa !10
  %49 = bitcast i32* %11 to i8*
  call void @llvm.lifetime.end.p0i8(i64 4, i8* %49) #6
  ret i32 %48
}

; Function Attrs: nounwind sspstrong uwtable
define linkonce_odr i32 @_ZNSt3__17__sort5IRNS_6__lessIccEEPcEEjT0_S5_S5_S5_S5_T_(i8*, i8*, i8*, i8*, i8*, %"struct.std::__1::__less"* dereferenceable(1)) #3 comdat {
  %7 = alloca i8*, align 8
  %8 = alloca i8*, align 8
  %9 = alloca i8*, align 8
  %10 = alloca i8*, align 8
  %11 = alloca i8*, align 8
  %12 = alloca %"struct.std::__1::__less"*, align 8
  %13 = alloca i32, align 4
  store i8* %0, i8** %7, align 8, !tbaa !3
  store i8* %1, i8** %8, align 8, !tbaa !3
  store i8* %2, i8** %9, align 8, !tbaa !3
  store i8* %3, i8** %10, align 8, !tbaa !3
  store i8* %4, i8** %11, align 8, !tbaa !3
  store %"struct.std::__1::__less"* %5, %"struct.std::__1::__less"** %12, align 8, !tbaa !7
  %14 = bitcast i32* %13 to i8*
  call void @llvm.lifetime.start.p0i8(i64 4, i8* %14) #6
  %15 = load i8*, i8** %7, align 8, !tbaa !3
  %16 = load i8*, i8** %8, align 8, !tbaa !3
  %17 = load i8*, i8** %9, align 8, !tbaa !3
  %18 = load i8*, i8** %10, align 8, !tbaa !3
  %19 = load %"struct.std::__1::__less"*, %"struct.std::__1::__less"** %12, align 8
  %20 = call i32 @_ZNSt3__17__sort4IRNS_6__lessIccEEPcEEjT0_S5_S5_S5_T_(i8* %15, i8* %16, i8* %17, i8* %18, %"struct.std::__1::__less"* dereferenceable(1) %19)
  store i32 %20, i32* %13, align 4, !tbaa !10
  %21 = load %"struct.std::__1::__less"*, %"struct.std::__1::__less"** %12, align 8
  %22 = load i8*, i8** %11, align 8, !tbaa !3
  %23 = load i8*, i8** %10, align 8, !tbaa !3
  %24 = call zeroext i1 @_ZNKSt3__16__lessIccEclERKcS3_(%"struct.std::__1::__less"* %21, i8* dereferenceable(1) %22, i8* dereferenceable(1) %23)
  br i1 %24, label %25, label %60

; <label>:25:                                     ; preds = %6
  %26 = load i8*, i8** %10, align 8, !tbaa !3
  %27 = load i8*, i8** %11, align 8, !tbaa !3
  call void @_ZNSt3__14swapIcEENS_9enable_ifIXaasr21is_move_constructibleIT_EE5valuesr18is_move_assignableIS2_EE5valueEvE4typeERS2_S5_(i8* dereferenceable(1) %26, i8* dereferenceable(1) %27) #6
  %28 = load i32, i32* %13, align 4, !tbaa !10
  %29 = add i32 %28, 1
  store i32 %29, i32* %13, align 4, !tbaa !10
  %30 = load %"struct.std::__1::__less"*, %"struct.std::__1::__less"** %12, align 8
  %31 = load i8*, i8** %10, align 8, !tbaa !3
  %32 = load i8*, i8** %9, align 8, !tbaa !3
  %33 = call zeroext i1 @_ZNKSt3__16__lessIccEclERKcS3_(%"struct.std::__1::__less"* %30, i8* dereferenceable(1) %31, i8* dereferenceable(1) %32)
  br i1 %33, label %34, label %59

; <label>:34:                                     ; preds = %25
  %35 = load i8*, i8** %9, align 8, !tbaa !3
  %36 = load i8*, i8** %10, align 8, !tbaa !3
  call void @_ZNSt3__14swapIcEENS_9enable_ifIXaasr21is_move_constructibleIT_EE5valuesr18is_move_assignableIS2_EE5valueEvE4typeERS2_S5_(i8* dereferenceable(1) %35, i8* dereferenceable(1) %36) #6
  %37 = load i32, i32* %13, align 4, !tbaa !10
  %38 = add i32 %37, 1
  store i32 %38, i32* %13, align 4, !tbaa !10
  %39 = load %"struct.std::__1::__less"*, %"struct.std::__1::__less"** %12, align 8
  %40 = load i8*, i8** %9, align 8, !tbaa !3
  %41 = load i8*, i8** %8, align 8, !tbaa !3
  %42 = call zeroext i1 @_ZNKSt3__16__lessIccEclERKcS3_(%"struct.std::__1::__less"* %39, i8* dereferenceable(1) %40, i8* dereferenceable(1) %41)
  br i1 %42, label %43, label %58

; <label>:43:                                     ; preds = %34
  %44 = load i8*, i8** %8, align 8, !tbaa !3
  %45 = load i8*, i8** %9, align 8, !tbaa !3
  call void @_ZNSt3__14swapIcEENS_9enable_ifIXaasr21is_move_constructibleIT_EE5valuesr18is_move_assignableIS2_EE5valueEvE4typeERS2_S5_(i8* dereferenceable(1) %44, i8* dereferenceable(1) %45) #6
  %46 = load i32, i32* %13, align 4, !tbaa !10
  %47 = add i32 %46, 1
  store i32 %47, i32* %13, align 4, !tbaa !10
  %48 = load %"struct.std::__1::__less"*, %"struct.std::__1::__less"** %12, align 8
  %49 = load i8*, i8** %8, align 8, !tbaa !3
  %50 = load i8*, i8** %7, align 8, !tbaa !3
  %51 = call zeroext i1 @_ZNKSt3__16__lessIccEclERKcS3_(%"struct.std::__1::__less"* %48, i8* dereferenceable(1) %49, i8* dereferenceable(1) %50)
  br i1 %51, label %52, label %57

; <label>:52:                                     ; preds = %43
  %53 = load i8*, i8** %7, align 8, !tbaa !3
  %54 = load i8*, i8** %8, align 8, !tbaa !3
  call void @_ZNSt3__14swapIcEENS_9enable_ifIXaasr21is_move_constructibleIT_EE5valuesr18is_move_assignableIS2_EE5valueEvE4typeERS2_S5_(i8* dereferenceable(1) %53, i8* dereferenceable(1) %54) #6
  %55 = load i32, i32* %13, align 4, !tbaa !10
  %56 = add i32 %55, 1
  store i32 %56, i32* %13, align 4, !tbaa !10
  br label %57

; <label>:57:                                     ; preds = %52, %43
  br label %58

; <label>:58:                                     ; preds = %57, %34
  br label %59

; <label>:59:                                     ; preds = %58, %25
  br label %60

; <label>:60:                                     ; preds = %59, %6
  %61 = load i32, i32* %13, align 4, !tbaa !10
  %62 = bitcast i32* %13 to i8*
  call void @llvm.lifetime.end.p0i8(i64 4, i8* %62) #6
  ret i32 %61
}

; Function Attrs: nounwind sspstrong uwtable
define linkonce_odr void @_ZNSt3__118__insertion_sort_3IRNS_6__lessIccEEPcEEvT0_S5_T_(i8*, i8*, %"struct.std::__1::__less"* dereferenceable(1)) #3 comdat {
  %4 = alloca i8*, align 8
  %5 = alloca i8*, align 8
  %6 = alloca %"struct.std::__1::__less"*, align 8
  %7 = alloca i8*, align 8
  %8 = alloca i8*, align 8
  %9 = alloca i8, align 1
  %10 = alloca i8*, align 8
  store i8* %0, i8** %4, align 8, !tbaa !3
  store i8* %1, i8** %5, align 8, !tbaa !3
  store %"struct.std::__1::__less"* %2, %"struct.std::__1::__less"** %6, align 8, !tbaa !7
  %11 = bitcast i8** %7 to i8*
  call void @llvm.lifetime.start.p0i8(i64 8, i8* %11) #6
  %12 = load i8*, i8** %4, align 8, !tbaa !3
  %13 = getelementptr i8, i8* %12, i64 2
  store i8* %13, i8** %7, align 8, !tbaa !3
  %14 = load i8*, i8** %4, align 8, !tbaa !3
  %15 = load i8*, i8** %4, align 8, !tbaa !3
  %16 = getelementptr i8, i8* %15, i64 1
  %17 = load i8*, i8** %7, align 8, !tbaa !3
  %18 = load %"struct.std::__1::__less"*, %"struct.std::__1::__less"** %6, align 8
  %19 = call i32 @_ZNSt3__17__sort3IRNS_6__lessIccEEPcEEjT0_S5_S5_T_(i8* %14, i8* %16, i8* %17, %"struct.std::__1::__less"* dereferenceable(1) %18)
  %20 = bitcast i8** %8 to i8*
  call void @llvm.lifetime.start.p0i8(i64 8, i8* %20) #6
  %21 = load i8*, i8** %7, align 8, !tbaa !3
  %22 = getelementptr i8, i8* %21, i64 1
  store i8* %22, i8** %8, align 8, !tbaa !3
  br label %23

; <label>:23:                                     ; preds = %65, %3
  %24 = load i8*, i8** %8, align 8, !tbaa !3
  %25 = load i8*, i8** %5, align 8, !tbaa !3
  %26 = icmp ne i8* %24, %25
  br i1 %26, label %29, label %27

; <label>:27:                                     ; preds = %23
  %28 = bitcast i8** %8 to i8*
  call void @llvm.lifetime.end.p0i8(i64 8, i8* %28) #6
  br label %68

; <label>:29:                                     ; preds = %23
  %30 = load %"struct.std::__1::__less"*, %"struct.std::__1::__less"** %6, align 8
  %31 = load i8*, i8** %8, align 8, !tbaa !3
  %32 = load i8*, i8** %7, align 8, !tbaa !3
  %33 = call zeroext i1 @_ZNKSt3__16__lessIccEclERKcS3_(%"struct.std::__1::__less"* %30, i8* dereferenceable(1) %31, i8* dereferenceable(1) %32)
  br i1 %33, label %34, label %63

; <label>:34:                                     ; preds = %29
  call void @llvm.lifetime.start.p0i8(i64 1, i8* %9) #6
  %35 = load i8*, i8** %8, align 8, !tbaa !3
  %36 = call dereferenceable(1) i8* @_ZNSt3__14moveIRcEEONS_16remove_referenceIT_E4typeEOS3_(i8* dereferenceable(1) %35) #6
  %37 = load i8, i8* %36, align 1, !tbaa !7
  store i8 %37, i8* %9, align 1, !tbaa !7
  %38 = bitcast i8** %10 to i8*
  call void @llvm.lifetime.start.p0i8(i64 8, i8* %38) #6
  %39 = load i8*, i8** %7, align 8, !tbaa !3
  store i8* %39, i8** %10, align 8, !tbaa !3
  %40 = load i8*, i8** %8, align 8, !tbaa !3
  store i8* %40, i8** %7, align 8, !tbaa !3
  br label %41

; <label>:41:                                     ; preds = %56, %34
  %42 = load i8*, i8** %10, align 8, !tbaa !3
  %43 = call dereferenceable(1) i8* @_ZNSt3__14moveIRcEEONS_16remove_referenceIT_E4typeEOS3_(i8* dereferenceable(1) %42) #6
  %44 = load i8, i8* %43, align 1, !tbaa !7
  %45 = load i8*, i8** %7, align 8, !tbaa !3
  store i8 %44, i8* %45, align 1, !tbaa !7
  %46 = load i8*, i8** %10, align 8, !tbaa !3
  store i8* %46, i8** %7, align 8, !tbaa !3
  br label %47

; <label>:47:                                     ; preds = %41
  %48 = load i8*, i8** %7, align 8, !tbaa !3
  %49 = load i8*, i8** %4, align 8, !tbaa !3
  %50 = icmp ne i8* %48, %49
  br i1 %50, label %51, label %56

; <label>:51:                                     ; preds = %47
  %52 = load %"struct.std::__1::__less"*, %"struct.std::__1::__less"** %6, align 8
  %53 = load i8*, i8** %10, align 8, !tbaa !3
  %54 = getelementptr i8, i8* %53, i32 -1
  store i8* %54, i8** %10, align 8, !tbaa !3
  %55 = call zeroext i1 @_ZNKSt3__16__lessIccEclERKcS3_(%"struct.std::__1::__less"* %52, i8* dereferenceable(1) %9, i8* dereferenceable(1) %54)
  br label %56

; <label>:56:                                     ; preds = %51, %47
  %57 = phi i1 [ false, %47 ], [ %55, %51 ]
  br i1 %57, label %41, label %58

; <label>:58:                                     ; preds = %56
  %59 = call dereferenceable(1) i8* @_ZNSt3__14moveIRcEEONS_16remove_referenceIT_E4typeEOS3_(i8* dereferenceable(1) %9) #6
  %60 = load i8, i8* %59, align 1, !tbaa !7
  %61 = load i8*, i8** %7, align 8, !tbaa !3
  store i8 %60, i8* %61, align 1, !tbaa !7
  %62 = bitcast i8** %10 to i8*
  call void @llvm.lifetime.end.p0i8(i64 8, i8* %62) #6
  call void @llvm.lifetime.end.p0i8(i64 1, i8* %9) #6
  br label %63

; <label>:63:                                     ; preds = %58, %29
  %64 = load i8*, i8** %8, align 8, !tbaa !3
  store i8* %64, i8** %7, align 8, !tbaa !3
  br label %65

; <label>:65:                                     ; preds = %63
  %66 = load i8*, i8** %8, align 8, !tbaa !3
  %67 = getelementptr i8, i8* %66, i32 1
  store i8* %67, i8** %8, align 8, !tbaa !3
  br label %23

; <label>:68:                                     ; preds = %27
  %69 = bitcast i8** %7 to i8*
  call void @llvm.lifetime.end.p0i8(i64 8, i8* %69) #6
  ret void
}

; Function Attrs: argmemonly nounwind
declare void @llvm.lifetime.end.p0i8(i64, i8* nocapture) #1

; Function Attrs: sspstrong uwtable
define weak_odr zeroext i1 @_ZNSt3__127__insertion_sort_incompleteIRNS_6__lessIccEEPcEEbT0_S5_T_(i8*, i8*, %"struct.std::__1::__less"* dereferenceable(1)) #0 comdat {
  %4 = alloca i1, align 1
  %5 = alloca i8*, align 8
  %6 = alloca i8*, align 8
  %7 = alloca %"struct.std::__1::__less"*, align 8
  %8 = alloca i8*, align 8
  %9 = alloca i32, align 4
  %10 = alloca i32, align 4
  %11 = alloca i8*, align 8
  %12 = alloca i32
  %13 = alloca i8, align 1
  %14 = alloca i8*, align 8
  store i8* %0, i8** %5, align 8, !tbaa !3
  store i8* %1, i8** %6, align 8, !tbaa !3
  store %"struct.std::__1::__less"* %2, %"struct.std::__1::__less"** %7, align 8, !tbaa !7
  %15 = load i8*, i8** %6, align 8, !tbaa !3
  %16 = load i8*, i8** %5, align 8, !tbaa !3
  %17 = ptrtoint i8* %15 to i64
  %18 = ptrtoint i8* %16 to i64
  %19 = sub i64 %17, %18
  switch i64 %19, label %61 [
    i64 0, label %20
    i64 1, label %20
    i64 2, label %21
    i64 3, label %31
    i64 4, label %39
    i64 5, label %49
  ]

; <label>:20:                                     ; preds = %3, %3
  store i1 true, i1* %4, align 1
  br label %140

; <label>:21:                                     ; preds = %3
  %22 = load %"struct.std::__1::__less"*, %"struct.std::__1::__less"** %7, align 8
  %23 = load i8*, i8** %6, align 8, !tbaa !3
  %24 = getelementptr i8, i8* %23, i32 -1
  store i8* %24, i8** %6, align 8, !tbaa !3
  %25 = load i8*, i8** %5, align 8, !tbaa !3
  %26 = call zeroext i1 @_ZNKSt3__16__lessIccEclERKcS3_(%"struct.std::__1::__less"* %22, i8* dereferenceable(1) %24, i8* dereferenceable(1) %25)
  br i1 %26, label %27, label %30

; <label>:27:                                     ; preds = %21
  %28 = load i8*, i8** %5, align 8, !tbaa !3
  %29 = load i8*, i8** %6, align 8, !tbaa !3
  call void @_ZNSt3__14swapIcEENS_9enable_ifIXaasr21is_move_constructibleIT_EE5valuesr18is_move_assignableIS2_EE5valueEvE4typeERS2_S5_(i8* dereferenceable(1) %28, i8* dereferenceable(1) %29) #6
  br label %30

; <label>:30:                                     ; preds = %27, %21
  store i1 true, i1* %4, align 1
  br label %140

; <label>:31:                                     ; preds = %3
  %32 = load i8*, i8** %5, align 8, !tbaa !3
  %33 = load i8*, i8** %5, align 8, !tbaa !3
  %34 = getelementptr i8, i8* %33, i64 1
  %35 = load i8*, i8** %6, align 8, !tbaa !3
  %36 = getelementptr i8, i8* %35, i32 -1
  store i8* %36, i8** %6, align 8, !tbaa !3
  %37 = load %"struct.std::__1::__less"*, %"struct.std::__1::__less"** %7, align 8
  %38 = call i32 @_ZNSt3__17__sort3IRNS_6__lessIccEEPcEEjT0_S5_S5_T_(i8* %32, i8* %34, i8* %36, %"struct.std::__1::__less"* dereferenceable(1) %37)
  store i1 true, i1* %4, align 1
  br label %140

; <label>:39:                                     ; preds = %3
  %40 = load i8*, i8** %5, align 8, !tbaa !3
  %41 = load i8*, i8** %5, align 8, !tbaa !3
  %42 = getelementptr i8, i8* %41, i64 1
  %43 = load i8*, i8** %5, align 8, !tbaa !3
  %44 = getelementptr i8, i8* %43, i64 2
  %45 = load i8*, i8** %6, align 8, !tbaa !3
  %46 = getelementptr i8, i8* %45, i32 -1
  store i8* %46, i8** %6, align 8, !tbaa !3
  %47 = load %"struct.std::__1::__less"*, %"struct.std::__1::__less"** %7, align 8
  %48 = call i32 @_ZNSt3__17__sort4IRNS_6__lessIccEEPcEEjT0_S5_S5_S5_T_(i8* %40, i8* %42, i8* %44, i8* %46, %"struct.std::__1::__less"* dereferenceable(1) %47)
  store i1 true, i1* %4, align 1
  br label %140

; <label>:49:                                     ; preds = %3
  %50 = load i8*, i8** %5, align 8, !tbaa !3
  %51 = load i8*, i8** %5, align 8, !tbaa !3
  %52 = getelementptr i8, i8* %51, i64 1
  %53 = load i8*, i8** %5, align 8, !tbaa !3
  %54 = getelementptr i8, i8* %53, i64 2
  %55 = load i8*, i8** %5, align 8, !tbaa !3
  %56 = getelementptr i8, i8* %55, i64 3
  %57 = load i8*, i8** %6, align 8, !tbaa !3
  %58 = getelementptr i8, i8* %57, i32 -1
  store i8* %58, i8** %6, align 8, !tbaa !3
  %59 = load %"struct.std::__1::__less"*, %"struct.std::__1::__less"** %7, align 8
  %60 = call i32 @_ZNSt3__17__sort5IRNS_6__lessIccEEPcEEjT0_S5_S5_S5_S5_T_(i8* %50, i8* %52, i8* %54, i8* %56, i8* %58, %"struct.std::__1::__less"* dereferenceable(1) %59)
  store i1 true, i1* %4, align 1
  br label %140

; <label>:61:                                     ; preds = %3
  %62 = bitcast i8** %8 to i8*
  call void @llvm.lifetime.start.p0i8(i64 8, i8* %62) #6
  %63 = load i8*, i8** %5, align 8, !tbaa !3
  %64 = getelementptr i8, i8* %63, i64 2
  store i8* %64, i8** %8, align 8, !tbaa !3
  %65 = load i8*, i8** %5, align 8, !tbaa !3
  %66 = load i8*, i8** %5, align 8, !tbaa !3
  %67 = getelementptr i8, i8* %66, i64 1
  %68 = load i8*, i8** %8, align 8, !tbaa !3
  %69 = load %"struct.std::__1::__less"*, %"struct.std::__1::__less"** %7, align 8
  %70 = call i32 @_ZNSt3__17__sort3IRNS_6__lessIccEEPcEEjT0_S5_S5_T_(i8* %65, i8* %67, i8* %68, %"struct.std::__1::__less"* dereferenceable(1) %69)
  %71 = bitcast i32* %9 to i8*
  call void @llvm.lifetime.start.p0i8(i64 4, i8* %71) #6
  store i32 8, i32* %9, align 4, !tbaa !10
  %72 = bitcast i32* %10 to i8*
  call void @llvm.lifetime.start.p0i8(i64 4, i8* %72) #6
  store i32 0, i32* %10, align 4, !tbaa !10
  %73 = bitcast i8** %11 to i8*
  call void @llvm.lifetime.start.p0i8(i64 8, i8* %73) #6
  %74 = load i8*, i8** %8, align 8, !tbaa !3
  %75 = getelementptr i8, i8* %74, i64 1
  store i8* %75, i8** %11, align 8, !tbaa !3
  br label %76

; <label>:76:                                     ; preds = %129, %61
  %77 = load i8*, i8** %11, align 8, !tbaa !3
  %78 = load i8*, i8** %6, align 8, !tbaa !3
  %79 = icmp ne i8* %77, %78
  br i1 %79, label %81, label %80

; <label>:80:                                     ; preds = %76
  store i32 3, i32* %12, align 4
  br label %132

; <label>:81:                                     ; preds = %76
  %82 = load %"struct.std::__1::__less"*, %"struct.std::__1::__less"** %7, align 8
  %83 = load i8*, i8** %11, align 8, !tbaa !3
  %84 = load i8*, i8** %8, align 8, !tbaa !3
  %85 = call zeroext i1 @_ZNKSt3__16__lessIccEclERKcS3_(%"struct.std::__1::__less"* %82, i8* dereferenceable(1) %83, i8* dereferenceable(1) %84)
  br i1 %85, label %86, label %127

; <label>:86:                                     ; preds = %81
  call void @llvm.lifetime.start.p0i8(i64 1, i8* %13) #6
  %87 = load i8*, i8** %11, align 8, !tbaa !3
  %88 = call dereferenceable(1) i8* @_ZNSt3__14moveIRcEEONS_16remove_referenceIT_E4typeEOS3_(i8* dereferenceable(1) %87) #6
  %89 = load i8, i8* %88, align 1, !tbaa !7
  store i8 %89, i8* %13, align 1, !tbaa !7
  %90 = bitcast i8** %14 to i8*
  call void @llvm.lifetime.start.p0i8(i64 8, i8* %90) #6
  %91 = load i8*, i8** %8, align 8, !tbaa !3
  store i8* %91, i8** %14, align 8, !tbaa !3
  %92 = load i8*, i8** %11, align 8, !tbaa !3
  store i8* %92, i8** %8, align 8, !tbaa !3
  br label %93

; <label>:93:                                     ; preds = %108, %86
  %94 = load i8*, i8** %14, align 8, !tbaa !3
  %95 = call dereferenceable(1) i8* @_ZNSt3__14moveIRcEEONS_16remove_referenceIT_E4typeEOS3_(i8* dereferenceable(1) %94) #6
  %96 = load i8, i8* %95, align 1, !tbaa !7
  %97 = load i8*, i8** %8, align 8, !tbaa !3
  store i8 %96, i8* %97, align 1, !tbaa !7
  %98 = load i8*, i8** %14, align 8, !tbaa !3
  store i8* %98, i8** %8, align 8, !tbaa !3
  br label %99

; <label>:99:                                     ; preds = %93
  %100 = load i8*, i8** %8, align 8, !tbaa !3
  %101 = load i8*, i8** %5, align 8, !tbaa !3
  %102 = icmp ne i8* %100, %101
  br i1 %102, label %103, label %108

; <label>:103:                                    ; preds = %99
  %104 = load %"struct.std::__1::__less"*, %"struct.std::__1::__less"** %7, align 8
  %105 = load i8*, i8** %14, align 8, !tbaa !3
  %106 = getelementptr i8, i8* %105, i32 -1
  store i8* %106, i8** %14, align 8, !tbaa !3
  %107 = call zeroext i1 @_ZNKSt3__16__lessIccEclERKcS3_(%"struct.std::__1::__less"* %104, i8* dereferenceable(1) %13, i8* dereferenceable(1) %106)
  br label %108

; <label>:108:                                    ; preds = %103, %99
  %109 = phi i1 [ false, %99 ], [ %107, %103 ]
  br i1 %109, label %93, label %110

; <label>:110:                                    ; preds = %108
  %111 = call dereferenceable(1) i8* @_ZNSt3__14moveIRcEEONS_16remove_referenceIT_E4typeEOS3_(i8* dereferenceable(1) %13) #6
  %112 = load i8, i8* %111, align 1, !tbaa !7
  %113 = load i8*, i8** %8, align 8, !tbaa !3
  store i8 %112, i8* %113, align 1, !tbaa !7
  %114 = load i32, i32* %10, align 4, !tbaa !10
  %115 = add i32 %114, 1
  store i32 %115, i32* %10, align 4, !tbaa !10
  %116 = icmp eq i32 %115, 8
  br i1 %116, label %117, label %122

; <label>:117:                                    ; preds = %110
  %118 = load i8*, i8** %11, align 8, !tbaa !3
  %119 = getelementptr i8, i8* %118, i32 1
  store i8* %119, i8** %11, align 8, !tbaa !3
  %120 = load i8*, i8** %6, align 8, !tbaa !3
  %121 = icmp eq i8* %119, %120
  store i1 %121, i1* %4, align 1
  store i32 1, i32* %12, align 4
  br label %123

; <label>:122:                                    ; preds = %110
  store i32 0, i32* %12, align 4
  br label %123

; <label>:123:                                    ; preds = %122, %117
  %124 = bitcast i8** %14 to i8*
  call void @llvm.lifetime.end.p0i8(i64 8, i8* %124) #6
  call void @llvm.lifetime.end.p0i8(i64 1, i8* %13) #6
  %125 = load i32, i32* %12, align 4
  switch i32 %125, label %132 [
    i32 0, label %126
  ]

; <label>:126:                                    ; preds = %123
  br label %127

; <label>:127:                                    ; preds = %126, %81
  %128 = load i8*, i8** %11, align 8, !tbaa !3
  store i8* %128, i8** %8, align 8, !tbaa !3
  br label %129

; <label>:129:                                    ; preds = %127
  %130 = load i8*, i8** %11, align 8, !tbaa !3
  %131 = getelementptr i8, i8* %130, i32 1
  store i8* %131, i8** %11, align 8, !tbaa !3
  br label %76

; <label>:132:                                    ; preds = %123, %80
  %133 = bitcast i8** %11 to i8*
  call void @llvm.lifetime.end.p0i8(i64 8, i8* %133) #6
  %134 = load i32, i32* %12, align 4
  switch i32 %134, label %136 [
    i32 3, label %135
  ]

; <label>:135:                                    ; preds = %132
  store i1 true, i1* %4, align 1
  store i32 1, i32* %12, align 4
  br label %136

; <label>:136:                                    ; preds = %135, %132
  %137 = bitcast i32* %10 to i8*
  call void @llvm.lifetime.end.p0i8(i64 4, i8* %137) #6
  %138 = bitcast i32* %9 to i8*
  call void @llvm.lifetime.end.p0i8(i64 4, i8* %138) #6
  %139 = bitcast i8** %8 to i8*
  call void @llvm.lifetime.end.p0i8(i64 8, i8* %139) #6
  br label %140

; <label>:140:                                    ; preds = %136, %49, %39, %31, %30, %20
  %141 = load i1, i1* %4, align 1
  ret i1 %141
}

; Function Attrs: alwaysinline nounwind sspstrong uwtable
define linkonce_odr hidden dereferenceable(1) i8* @_ZNSt3__14moveIRcEEONS_16remove_referenceIT_E4typeEOS3_(i8* dereferenceable(1)) #2 comdat {
  %2 = alloca i8*, align 8
  store i8* %0, i8** %2, align 8, !tbaa !7
  %3 = load i8*, i8** %2, align 8
  ret i8* %3
}

; Function Attrs: sspstrong uwtable
define weak_odr void @_ZNSt3__16__sortIRNS_6__lessIwwEEPwEEvT0_S5_T_(i32*, i32*, %"struct.std::__1::__less"* dereferenceable(1)) #0 comdat {
  %4 = alloca i32*, align 8
  %5 = alloca i32*, align 8
  %6 = alloca %"struct.std::__1::__less"*, align 8
  %7 = alloca i64, align 8
  %8 = alloca i64, align 8
  %9 = alloca i32
  %10 = alloca i32*, align 8
  %11 = alloca i32*, align 8
  %12 = alloca i32, align 4
  %13 = alloca i64, align 8
  %14 = alloca i32*, align 8
  %15 = alloca i32*, align 8
  %16 = alloca i8, align 1
  store i32* %0, i32** %4, align 8, !tbaa !3
  store i32* %1, i32** %5, align 8, !tbaa !3
  store %"struct.std::__1::__less"* %2, %"struct.std::__1::__less"** %6, align 8, !tbaa !7
  %17 = bitcast i64* %7 to i8*
  call void @llvm.lifetime.start.p0i8(i64 8, i8* %17) #6
  store i64 30, i64* %7, align 8, !tbaa !8
  br label %18

; <label>:18:                                     ; preds = %344, %341, %3
  br label %19

; <label>:19:                                     ; preds = %18
  br label %20

; <label>:20:                                     ; preds = %341, %19
  %21 = bitcast i64* %8 to i8*
  call void @llvm.lifetime.start.p0i8(i64 8, i8* %21) #6
  %22 = load i32*, i32** %5, align 8, !tbaa !3
  %23 = load i32*, i32** %4, align 8, !tbaa !3
  %24 = ptrtoint i32* %22 to i64
  %25 = ptrtoint i32* %23 to i64
  %26 = sub i64 %24, %25
  %27 = sdiv exact i64 %26, 4
  store i64 %27, i64* %8, align 8, !tbaa !8
  %28 = load i64, i64* %8, align 8, !tbaa !8
  switch i64 %28, label %70 [
    i64 0, label %29
    i64 1, label %29
    i64 2, label %30
    i64 3, label %40
    i64 4, label %48
    i64 5, label %58
  ]

; <label>:29:                                     ; preds = %20, %20
  store i32 1, i32* %9, align 4
  br label %341

; <label>:30:                                     ; preds = %20
  %31 = load %"struct.std::__1::__less"*, %"struct.std::__1::__less"** %6, align 8
  %32 = load i32*, i32** %5, align 8, !tbaa !3
  %33 = getelementptr i32, i32* %32, i32 -1
  store i32* %33, i32** %5, align 8, !tbaa !3
  %34 = load i32*, i32** %4, align 8, !tbaa !3
  %35 = call zeroext i1 @_ZNKSt3__16__lessIwwEclERKwS3_(%"struct.std::__1::__less"* %31, i32* dereferenceable(4) %33, i32* dereferenceable(4) %34)
  br i1 %35, label %36, label %39

; <label>:36:                                     ; preds = %30
  %37 = load i32*, i32** %4, align 8, !tbaa !3
  %38 = load i32*, i32** %5, align 8, !tbaa !3
  call void @_ZNSt3__14swapIwEENS_9enable_ifIXaasr21is_move_constructibleIT_EE5valuesr18is_move_assignableIS2_EE5valueEvE4typeERS2_S5_(i32* dereferenceable(4) %37, i32* dereferenceable(4) %38) #6
  br label %39

; <label>:39:                                     ; preds = %36, %30
  store i32 1, i32* %9, align 4
  br label %341

; <label>:40:                                     ; preds = %20
  %41 = load i32*, i32** %4, align 8, !tbaa !3
  %42 = load i32*, i32** %4, align 8, !tbaa !3
  %43 = getelementptr i32, i32* %42, i64 1
  %44 = load i32*, i32** %5, align 8, !tbaa !3
  %45 = getelementptr i32, i32* %44, i32 -1
  store i32* %45, i32** %5, align 8, !tbaa !3
  %46 = load %"struct.std::__1::__less"*, %"struct.std::__1::__less"** %6, align 8
  %47 = call i32 @_ZNSt3__17__sort3IRNS_6__lessIwwEEPwEEjT0_S5_S5_T_(i32* %41, i32* %43, i32* %45, %"struct.std::__1::__less"* dereferenceable(1) %46)
  store i32 1, i32* %9, align 4
  br label %341

; <label>:48:                                     ; preds = %20
  %49 = load i32*, i32** %4, align 8, !tbaa !3
  %50 = load i32*, i32** %4, align 8, !tbaa !3
  %51 = getelementptr i32, i32* %50, i64 1
  %52 = load i32*, i32** %4, align 8, !tbaa !3
  %53 = getelementptr i32, i32* %52, i64 2
  %54 = load i32*, i32** %5, align 8, !tbaa !3
  %55 = getelementptr i32, i32* %54, i32 -1
  store i32* %55, i32** %5, align 8, !tbaa !3
  %56 = load %"struct.std::__1::__less"*, %"struct.std::__1::__less"** %6, align 8
  %57 = call i32 @_ZNSt3__17__sort4IRNS_6__lessIwwEEPwEEjT0_S5_S5_S5_T_(i32* %49, i32* %51, i32* %53, i32* %55, %"struct.std::__1::__less"* dereferenceable(1) %56)
  store i32 1, i32* %9, align 4
  br label %341

; <label>:58:                                     ; preds = %20
  %59 = load i32*, i32** %4, align 8, !tbaa !3
  %60 = load i32*, i32** %4, align 8, !tbaa !3
  %61 = getelementptr i32, i32* %60, i64 1
  %62 = load i32*, i32** %4, align 8, !tbaa !3
  %63 = getelementptr i32, i32* %62, i64 2
  %64 = load i32*, i32** %4, align 8, !tbaa !3
  %65 = getelementptr i32, i32* %64, i64 3
  %66 = load i32*, i32** %5, align 8, !tbaa !3
  %67 = getelementptr i32, i32* %66, i32 -1
  store i32* %67, i32** %5, align 8, !tbaa !3
  %68 = load %"struct.std::__1::__less"*, %"struct.std::__1::__less"** %6, align 8
  %69 = call i32 @_ZNSt3__17__sort5IRNS_6__lessIwwEEPwEEjT0_S5_S5_S5_S5_T_(i32* %59, i32* %61, i32* %63, i32* %65, i32* %67, %"struct.std::__1::__less"* dereferenceable(1) %68)
  store i32 1, i32* %9, align 4
  br label %341

; <label>:70:                                     ; preds = %20
  %71 = load i64, i64* %8, align 8, !tbaa !8
  %72 = icmp sle i64 %71, 30
  br i1 %72, label %73, label %77

; <label>:73:                                     ; preds = %70
  %74 = load i32*, i32** %4, align 8, !tbaa !3
  %75 = load i32*, i32** %5, align 8, !tbaa !3
  %76 = load %"struct.std::__1::__less"*, %"struct.std::__1::__less"** %6, align 8
  call void @_ZNSt3__118__insertion_sort_3IRNS_6__lessIwwEEPwEEvT0_S5_T_(i32* %74, i32* %75, %"struct.std::__1::__less"* dereferenceable(1) %76)
  store i32 1, i32* %9, align 4
  br label %341

; <label>:77:                                     ; preds = %70
  %78 = bitcast i32** %10 to i8*
  call void @llvm.lifetime.start.p0i8(i64 8, i8* %78) #6
  %79 = load i32*, i32** %4, align 8, !tbaa !3
  store i32* %79, i32** %10, align 8, !tbaa !3
  %80 = bitcast i32** %11 to i8*
  call void @llvm.lifetime.start.p0i8(i64 8, i8* %80) #6
  %81 = load i32*, i32** %5, align 8, !tbaa !3
  store i32* %81, i32** %11, align 8, !tbaa !3
  %82 = load i32*, i32** %11, align 8, !tbaa !3
  %83 = getelementptr i32, i32* %82, i32 -1
  store i32* %83, i32** %11, align 8, !tbaa !3
  %84 = bitcast i32* %12 to i8*
  call void @llvm.lifetime.start.p0i8(i64 4, i8* %84) #6
  %85 = bitcast i64* %13 to i8*
  call void @llvm.lifetime.start.p0i8(i64 8, i8* %85) #6
  %86 = load i64, i64* %8, align 8, !tbaa !8
  %87 = icmp sge i64 %86, 1000
  br i1 %87, label %88, label %107

; <label>:88:                                     ; preds = %77
  %89 = load i64, i64* %8, align 8, !tbaa !8
  %90 = sdiv i64 %89, 2
  store i64 %90, i64* %13, align 8, !tbaa !8
  %91 = load i64, i64* %13, align 8, !tbaa !8
  %92 = load i32*, i32** %10, align 8, !tbaa !3
  %93 = getelementptr i32, i32* %92, i64 %91
  store i32* %93, i32** %10, align 8, !tbaa !3
  %94 = load i64, i64* %13, align 8, !tbaa !8
  %95 = sdiv i64 %94, 2
  store i64 %95, i64* %13, align 8, !tbaa !8
  %96 = load i32*, i32** %4, align 8, !tbaa !3
  %97 = load i32*, i32** %4, align 8, !tbaa !3
  %98 = load i64, i64* %13, align 8, !tbaa !8
  %99 = getelementptr i32, i32* %97, i64 %98
  %100 = load i32*, i32** %10, align 8, !tbaa !3
  %101 = load i32*, i32** %10, align 8, !tbaa !3
  %102 = load i64, i64* %13, align 8, !tbaa !8
  %103 = getelementptr i32, i32* %101, i64 %102
  %104 = load i32*, i32** %11, align 8, !tbaa !3
  %105 = load %"struct.std::__1::__less"*, %"struct.std::__1::__less"** %6, align 8
  %106 = call i32 @_ZNSt3__17__sort5IRNS_6__lessIwwEEPwEEjT0_S5_S5_S5_S5_T_(i32* %96, i32* %99, i32* %100, i32* %103, i32* %104, %"struct.std::__1::__less"* dereferenceable(1) %105)
  store i32 %106, i32* %12, align 4, !tbaa !10
  br label %118

; <label>:107:                                    ; preds = %77
  %108 = load i64, i64* %8, align 8, !tbaa !8
  %109 = sdiv i64 %108, 2
  store i64 %109, i64* %13, align 8, !tbaa !8
  %110 = load i64, i64* %13, align 8, !tbaa !8
  %111 = load i32*, i32** %10, align 8, !tbaa !3
  %112 = getelementptr i32, i32* %111, i64 %110
  store i32* %112, i32** %10, align 8, !tbaa !3
  %113 = load i32*, i32** %4, align 8, !tbaa !3
  %114 = load i32*, i32** %10, align 8, !tbaa !3
  %115 = load i32*, i32** %11, align 8, !tbaa !3
  %116 = load %"struct.std::__1::__less"*, %"struct.std::__1::__less"** %6, align 8
  %117 = call i32 @_ZNSt3__17__sort3IRNS_6__lessIwwEEPwEEjT0_S5_S5_T_(i32* %113, i32* %114, i32* %115, %"struct.std::__1::__less"* dereferenceable(1) %116)
  store i32 %117, i32* %12, align 4, !tbaa !10
  br label %118

; <label>:118:                                    ; preds = %107, %88
  %119 = bitcast i64* %13 to i8*
  call void @llvm.lifetime.end.p0i8(i64 8, i8* %119) #6
  %120 = bitcast i32** %14 to i8*
  call void @llvm.lifetime.start.p0i8(i64 8, i8* %120) #6
  %121 = load i32*, i32** %4, align 8, !tbaa !3
  store i32* %121, i32** %14, align 8, !tbaa !3
  %122 = bitcast i32** %15 to i8*
  call void @llvm.lifetime.start.p0i8(i64 8, i8* %122) #6
  %123 = load i32*, i32** %11, align 8, !tbaa !3
  store i32* %123, i32** %15, align 8, !tbaa !3
  %124 = load %"struct.std::__1::__less"*, %"struct.std::__1::__less"** %6, align 8
  %125 = load i32*, i32** %14, align 8, !tbaa !3
  %126 = load i32*, i32** %10, align 8, !tbaa !3
  %127 = call zeroext i1 @_ZNKSt3__16__lessIwwEclERKwS3_(%"struct.std::__1::__less"* %124, i32* dereferenceable(4) %125, i32* dereferenceable(4) %126)
  br i1 %127, label %218, label %128

; <label>:128:                                    ; preds = %118
  br label %129

; <label>:129:                                    ; preds = %216, %128
  br label %130

; <label>:130:                                    ; preds = %129
  %131 = load i32*, i32** %14, align 8, !tbaa !3
  %132 = load i32*, i32** %15, align 8, !tbaa !3
  %133 = getelementptr i32, i32* %132, i32 -1
  store i32* %133, i32** %15, align 8, !tbaa !3
  %134 = icmp eq i32* %131, %133
  br i1 %134, label %135, label %206

; <label>:135:                                    ; preds = %130
  %136 = load i32*, i32** %14, align 8, !tbaa !3
  %137 = getelementptr i32, i32* %136, i32 1
  store i32* %137, i32** %14, align 8, !tbaa !3
  %138 = load i32*, i32** %5, align 8, !tbaa !3
  store i32* %138, i32** %15, align 8, !tbaa !3
  %139 = load %"struct.std::__1::__less"*, %"struct.std::__1::__less"** %6, align 8
  %140 = load i32*, i32** %4, align 8, !tbaa !3
  %141 = load i32*, i32** %15, align 8, !tbaa !3
  %142 = getelementptr i32, i32* %141, i32 -1
  store i32* %142, i32** %15, align 8, !tbaa !3
  %143 = call zeroext i1 @_ZNKSt3__16__lessIwwEclERKwS3_(%"struct.std::__1::__less"* %139, i32* dereferenceable(4) %140, i32* dereferenceable(4) %142)
  br i1 %143, label %167, label %144

; <label>:144:                                    ; preds = %135
  br label %145

; <label>:145:                                    ; preds = %163, %144
  br label %146

; <label>:146:                                    ; preds = %145
  %147 = load i32*, i32** %14, align 8, !tbaa !3
  %148 = load i32*, i32** %15, align 8, !tbaa !3
  %149 = icmp eq i32* %147, %148
  br i1 %149, label %150, label %151

; <label>:150:                                    ; preds = %146
  store i32 1, i32* %9, align 4
  br label %335

; <label>:151:                                    ; preds = %146
  %152 = load %"struct.std::__1::__less"*, %"struct.std::__1::__less"** %6, align 8
  %153 = load i32*, i32** %4, align 8, !tbaa !3
  %154 = load i32*, i32** %14, align 8, !tbaa !3
  %155 = call zeroext i1 @_ZNKSt3__16__lessIwwEclERKwS3_(%"struct.std::__1::__less"* %152, i32* dereferenceable(4) %153, i32* dereferenceable(4) %154)
  br i1 %155, label %156, label %163

; <label>:156:                                    ; preds = %151
  %157 = load i32*, i32** %14, align 8, !tbaa !3
  %158 = load i32*, i32** %15, align 8, !tbaa !3
  call void @_ZNSt3__14swapIwEENS_9enable_ifIXaasr21is_move_constructibleIT_EE5valuesr18is_move_assignableIS2_EE5valueEvE4typeERS2_S5_(i32* dereferenceable(4) %157, i32* dereferenceable(4) %158) #6
  %159 = load i32, i32* %12, align 4, !tbaa !10
  %160 = add i32 %159, 1
  store i32 %160, i32* %12, align 4, !tbaa !10
  %161 = load i32*, i32** %14, align 8, !tbaa !3
  %162 = getelementptr i32, i32* %161, i32 1
  store i32* %162, i32** %14, align 8, !tbaa !3
  br label %166

; <label>:163:                                    ; preds = %151
  %164 = load i32*, i32** %14, align 8, !tbaa !3
  %165 = getelementptr i32, i32* %164, i32 1
  store i32* %165, i32** %14, align 8, !tbaa !3
  br label %145

; <label>:166:                                    ; preds = %156
  br label %167

; <label>:167:                                    ; preds = %166, %135
  %168 = load i32*, i32** %14, align 8, !tbaa !3
  %169 = load i32*, i32** %15, align 8, !tbaa !3
  %170 = icmp eq i32* %168, %169
  br i1 %170, label %171, label %172

; <label>:171:                                    ; preds = %167
  store i32 1, i32* %9, align 4
  br label %335

; <label>:172:                                    ; preds = %167
  br label %173

; <label>:173:                                    ; preds = %197, %172
  br label %174

; <label>:174:                                    ; preds = %173
  br label %175

; <label>:175:                                    ; preds = %181, %174
  %176 = load %"struct.std::__1::__less"*, %"struct.std::__1::__less"** %6, align 8
  %177 = load i32*, i32** %4, align 8, !tbaa !3
  %178 = load i32*, i32** %14, align 8, !tbaa !3
  %179 = call zeroext i1 @_ZNKSt3__16__lessIwwEclERKwS3_(%"struct.std::__1::__less"* %176, i32* dereferenceable(4) %177, i32* dereferenceable(4) %178)
  %180 = xor i1 %179, true
  br i1 %180, label %181, label %184

; <label>:181:                                    ; preds = %175
  %182 = load i32*, i32** %14, align 8, !tbaa !3
  %183 = getelementptr i32, i32* %182, i32 1
  store i32* %183, i32** %14, align 8, !tbaa !3
  br label %175

; <label>:184:                                    ; preds = %175
  br label %185

; <label>:185:                                    ; preds = %191, %184
  %186 = load %"struct.std::__1::__less"*, %"struct.std::__1::__less"** %6, align 8
  %187 = load i32*, i32** %4, align 8, !tbaa !3
  %188 = load i32*, i32** %15, align 8, !tbaa !3
  %189 = getelementptr i32, i32* %188, i32 -1
  store i32* %189, i32** %15, align 8, !tbaa !3
  %190 = call zeroext i1 @_ZNKSt3__16__lessIwwEclERKwS3_(%"struct.std::__1::__less"* %186, i32* dereferenceable(4) %187, i32* dereferenceable(4) %189)
  br i1 %190, label %191, label %192

; <label>:191:                                    ; preds = %185
  br label %185

; <label>:192:                                    ; preds = %185
  %193 = load i32*, i32** %14, align 8, !tbaa !3
  %194 = load i32*, i32** %15, align 8, !tbaa !3
  %195 = icmp uge i32* %193, %194
  br i1 %195, label %196, label %197

; <label>:196:                                    ; preds = %192
  br label %204

; <label>:197:                                    ; preds = %192
  %198 = load i32*, i32** %14, align 8, !tbaa !3
  %199 = load i32*, i32** %15, align 8, !tbaa !3
  call void @_ZNSt3__14swapIwEENS_9enable_ifIXaasr21is_move_constructibleIT_EE5valuesr18is_move_assignableIS2_EE5valueEvE4typeERS2_S5_(i32* dereferenceable(4) %198, i32* dereferenceable(4) %199) #6
  %200 = load i32, i32* %12, align 4, !tbaa !10
  %201 = add i32 %200, 1
  store i32 %201, i32* %12, align 4, !tbaa !10
  %202 = load i32*, i32** %14, align 8, !tbaa !3
  %203 = getelementptr i32, i32* %202, i32 1
  store i32* %203, i32** %14, align 8, !tbaa !3
  br label %173

; <label>:204:                                    ; preds = %196
  %205 = load i32*, i32** %14, align 8, !tbaa !3
  store i32* %205, i32** %4, align 8, !tbaa !3
  store i32 4, i32* %9, align 4
  br label %335

; <label>:206:                                    ; preds = %130
  %207 = load %"struct.std::__1::__less"*, %"struct.std::__1::__less"** %6, align 8
  %208 = load i32*, i32** %15, align 8, !tbaa !3
  %209 = load i32*, i32** %10, align 8, !tbaa !3
  %210 = call zeroext i1 @_ZNKSt3__16__lessIwwEclERKwS3_(%"struct.std::__1::__less"* %207, i32* dereferenceable(4) %208, i32* dereferenceable(4) %209)
  br i1 %210, label %211, label %216

; <label>:211:                                    ; preds = %206
  %212 = load i32*, i32** %14, align 8, !tbaa !3
  %213 = load i32*, i32** %15, align 8, !tbaa !3
  call void @_ZNSt3__14swapIwEENS_9enable_ifIXaasr21is_move_constructibleIT_EE5valuesr18is_move_assignableIS2_EE5valueEvE4typeERS2_S5_(i32* dereferenceable(4) %212, i32* dereferenceable(4) %213) #6
  %214 = load i32, i32* %12, align 4, !tbaa !10
  %215 = add i32 %214, 1
  store i32 %215, i32* %12, align 4, !tbaa !10
  br label %217

; <label>:216:                                    ; preds = %206
  br label %129

; <label>:217:                                    ; preds = %211
  br label %218

; <label>:218:                                    ; preds = %217, %118
  %219 = load i32*, i32** %14, align 8, !tbaa !3
  %220 = getelementptr i32, i32* %219, i32 1
  store i32* %220, i32** %14, align 8, !tbaa !3
  %221 = load i32*, i32** %14, align 8, !tbaa !3
  %222 = load i32*, i32** %15, align 8, !tbaa !3
  %223 = icmp ult i32* %221, %222
  br i1 %223, label %224, label %263

; <label>:224:                                    ; preds = %218
  br label %225

; <label>:225:                                    ; preds = %259, %224
  br label %226

; <label>:226:                                    ; preds = %225
  br label %227

; <label>:227:                                    ; preds = %232, %226
  %228 = load %"struct.std::__1::__less"*, %"struct.std::__1::__less"** %6, align 8
  %229 = load i32*, i32** %14, align 8, !tbaa !3
  %230 = load i32*, i32** %10, align 8, !tbaa !3
  %231 = call zeroext i1 @_ZNKSt3__16__lessIwwEclERKwS3_(%"struct.std::__1::__less"* %228, i32* dereferenceable(4) %229, i32* dereferenceable(4) %230)
  br i1 %231, label %232, label %235

; <label>:232:                                    ; preds = %227
  %233 = load i32*, i32** %14, align 8, !tbaa !3
  %234 = getelementptr i32, i32* %233, i32 1
  store i32* %234, i32** %14, align 8, !tbaa !3
  br label %227

; <label>:235:                                    ; preds = %227
  br label %236

; <label>:236:                                    ; preds = %243, %235
  %237 = load %"struct.std::__1::__less"*, %"struct.std::__1::__less"** %6, align 8
  %238 = load i32*, i32** %15, align 8, !tbaa !3
  %239 = getelementptr i32, i32* %238, i32 -1
  store i32* %239, i32** %15, align 8, !tbaa !3
  %240 = load i32*, i32** %10, align 8, !tbaa !3
  %241 = call zeroext i1 @_ZNKSt3__16__lessIwwEclERKwS3_(%"struct.std::__1::__less"* %237, i32* dereferenceable(4) %239, i32* dereferenceable(4) %240)
  %242 = xor i1 %241, true
  br i1 %242, label %243, label %244

; <label>:243:                                    ; preds = %236
  br label %236

; <label>:244:                                    ; preds = %236
  %245 = load i32*, i32** %14, align 8, !tbaa !3
  %246 = load i32*, i32** %15, align 8, !tbaa !3
  %247 = icmp ugt i32* %245, %246
  br i1 %247, label %248, label %249

; <label>:248:                                    ; preds = %244
  br label %262

; <label>:249:                                    ; preds = %244
  %250 = load i32*, i32** %14, align 8, !tbaa !3
  %251 = load i32*, i32** %15, align 8, !tbaa !3
  call void @_ZNSt3__14swapIwEENS_9enable_ifIXaasr21is_move_constructibleIT_EE5valuesr18is_move_assignableIS2_EE5valueEvE4typeERS2_S5_(i32* dereferenceable(4) %250, i32* dereferenceable(4) %251) #6
  %252 = load i32, i32* %12, align 4, !tbaa !10
  %253 = add i32 %252, 1
  store i32 %253, i32* %12, align 4, !tbaa !10
  %254 = load i32*, i32** %10, align 8, !tbaa !3
  %255 = load i32*, i32** %14, align 8, !tbaa !3
  %256 = icmp eq i32* %254, %255
  br i1 %256, label %257, label %259

; <label>:257:                                    ; preds = %249
  %258 = load i32*, i32** %15, align 8, !tbaa !3
  store i32* %258, i32** %10, align 8, !tbaa !3
  br label %259

; <label>:259:                                    ; preds = %257, %249
  %260 = load i32*, i32** %14, align 8, !tbaa !3
  %261 = getelementptr i32, i32* %260, i32 1
  store i32* %261, i32** %14, align 8, !tbaa !3
  br label %225

; <label>:262:                                    ; preds = %248
  br label %263

; <label>:263:                                    ; preds = %262, %218
  %264 = load i32*, i32** %14, align 8, !tbaa !3
  %265 = load i32*, i32** %10, align 8, !tbaa !3
  %266 = icmp ne i32* %264, %265
  br i1 %266, label %267, label %277

; <label>:267:                                    ; preds = %263
  %268 = load %"struct.std::__1::__less"*, %"struct.std::__1::__less"** %6, align 8
  %269 = load i32*, i32** %10, align 8, !tbaa !3
  %270 = load i32*, i32** %14, align 8, !tbaa !3
  %271 = call zeroext i1 @_ZNKSt3__16__lessIwwEclERKwS3_(%"struct.std::__1::__less"* %268, i32* dereferenceable(4) %269, i32* dereferenceable(4) %270)
  br i1 %271, label %272, label %277

; <label>:272:                                    ; preds = %267
  %273 = load i32*, i32** %14, align 8, !tbaa !3
  %274 = load i32*, i32** %10, align 8, !tbaa !3
  call void @_ZNSt3__14swapIwEENS_9enable_ifIXaasr21is_move_constructibleIT_EE5valuesr18is_move_assignableIS2_EE5valueEvE4typeERS2_S5_(i32* dereferenceable(4) %273, i32* dereferenceable(4) %274) #6
  %275 = load i32, i32* %12, align 4, !tbaa !10
  %276 = add i32 %275, 1
  store i32 %276, i32* %12, align 4, !tbaa !10
  br label %277

; <label>:277:                                    ; preds = %272, %267, %263
  %278 = load i32, i32* %12, align 4, !tbaa !10
  %279 = icmp eq i32 %278, 0
  br i1 %279, label %280, label %308

; <label>:280:                                    ; preds = %277
  call void @llvm.lifetime.start.p0i8(i64 1, i8* %16) #6
  %281 = load i32*, i32** %4, align 8, !tbaa !3
  %282 = load i32*, i32** %14, align 8, !tbaa !3
  %283 = load %"struct.std::__1::__less"*, %"struct.std::__1::__less"** %6, align 8
  %284 = call zeroext i1 @_ZNSt3__127__insertion_sort_incompleteIRNS_6__lessIwwEEPwEEbT0_S5_T_(i32* %281, i32* %282, %"struct.std::__1::__less"* dereferenceable(1) %283)
  %285 = zext i1 %284 to i8
  store i8 %285, i8* %16, align 1, !tbaa !12
  %286 = load i32*, i32** %14, align 8, !tbaa !3
  %287 = getelementptr i32, i32* %286, i64 1
  %288 = load i32*, i32** %5, align 8, !tbaa !3
  %289 = load %"struct.std::__1::__less"*, %"struct.std::__1::__less"** %6, align 8
  %290 = call zeroext i1 @_ZNSt3__127__insertion_sort_incompleteIRNS_6__lessIwwEEPwEEbT0_S5_T_(i32* %287, i32* %288, %"struct.std::__1::__less"* dereferenceable(1) %289)
  br i1 %290, label %291, label %297

; <label>:291:                                    ; preds = %280
  %292 = load i8, i8* %16, align 1, !tbaa !12, !range !14
  %293 = trunc i8 %292 to i1
  br i1 %293, label %294, label %295

; <label>:294:                                    ; preds = %291
  store i32 1, i32* %9, align 4
  br label %305

; <label>:295:                                    ; preds = %291
  %296 = load i32*, i32** %14, align 8, !tbaa !3
  store i32* %296, i32** %5, align 8, !tbaa !3
  store i32 2, i32* %9, align 4
  br label %305

; <label>:297:                                    ; preds = %280
  %298 = load i8, i8* %16, align 1, !tbaa !12, !range !14
  %299 = trunc i8 %298 to i1
  br i1 %299, label %300, label %303

; <label>:300:                                    ; preds = %297
  %301 = load i32*, i32** %14, align 8, !tbaa !3
  %302 = getelementptr i32, i32* %301, i32 1
  store i32* %302, i32** %14, align 8, !tbaa !3
  store i32* %302, i32** %4, align 8, !tbaa !3
  store i32 2, i32* %9, align 4
  br label %305

; <label>:303:                                    ; preds = %297
  br label %304

; <label>:304:                                    ; preds = %303
  store i32 0, i32* %9, align 4
  br label %305

; <label>:305:                                    ; preds = %304, %300, %295, %294
  call void @llvm.lifetime.end.p0i8(i64 1, i8* %16) #6
  %306 = load i32, i32* %9, align 4
  switch i32 %306, label %335 [
    i32 0, label %307
  ]

; <label>:307:                                    ; preds = %305
  br label %308

; <label>:308:                                    ; preds = %307, %277
  %309 = load i32*, i32** %14, align 8, !tbaa !3
  %310 = load i32*, i32** %4, align 8, !tbaa !3
  %311 = ptrtoint i32* %309 to i64
  %312 = ptrtoint i32* %310 to i64
  %313 = sub i64 %311, %312
  %314 = sdiv exact i64 %313, 4
  %315 = load i32*, i32** %5, align 8, !tbaa !3
  %316 = load i32*, i32** %14, align 8, !tbaa !3
  %317 = ptrtoint i32* %315 to i64
  %318 = ptrtoint i32* %316 to i64
  %319 = sub i64 %317, %318
  %320 = sdiv exact i64 %319, 4
  %321 = icmp slt i64 %314, %320
  br i1 %321, label %322, label %328

; <label>:322:                                    ; preds = %308
  %323 = load i32*, i32** %4, align 8, !tbaa !3
  %324 = load i32*, i32** %14, align 8, !tbaa !3
  %325 = load %"struct.std::__1::__less"*, %"struct.std::__1::__less"** %6, align 8
  call void @_ZNSt3__16__sortIRNS_6__lessIwwEEPwEEvT0_S5_T_(i32* %323, i32* %324, %"struct.std::__1::__less"* dereferenceable(1) %325)
  %326 = load i32*, i32** %14, align 8, !tbaa !3
  %327 = getelementptr i32, i32* %326, i32 1
  store i32* %327, i32** %14, align 8, !tbaa !3
  store i32* %327, i32** %4, align 8, !tbaa !3
  br label %334

; <label>:328:                                    ; preds = %308
  %329 = load i32*, i32** %14, align 8, !tbaa !3
  %330 = getelementptr i32, i32* %329, i64 1
  %331 = load i32*, i32** %5, align 8, !tbaa !3
  %332 = load %"struct.std::__1::__less"*, %"struct.std::__1::__less"** %6, align 8
  call void @_ZNSt3__16__sortIRNS_6__lessIwwEEPwEEvT0_S5_T_(i32* %330, i32* %331, %"struct.std::__1::__less"* dereferenceable(1) %332)
  %333 = load i32*, i32** %14, align 8, !tbaa !3
  store i32* %333, i32** %5, align 8, !tbaa !3
  br label %334

; <label>:334:                                    ; preds = %328, %322
  store i32 0, i32* %9, align 4
  br label %335

; <label>:335:                                    ; preds = %334, %305, %204, %171, %150
  %336 = bitcast i32** %15 to i8*
  call void @llvm.lifetime.end.p0i8(i64 8, i8* %336) #6
  %337 = bitcast i32** %14 to i8*
  call void @llvm.lifetime.end.p0i8(i64 8, i8* %337) #6
  %338 = bitcast i32* %12 to i8*
  call void @llvm.lifetime.end.p0i8(i64 4, i8* %338) #6
  %339 = bitcast i32** %11 to i8*
  call void @llvm.lifetime.end.p0i8(i64 8, i8* %339) #6
  %340 = bitcast i32** %10 to i8*
  call void @llvm.lifetime.end.p0i8(i64 8, i8* %340) #6
  br label %341

; <label>:341:                                    ; preds = %335, %73, %58, %48, %40, %39, %29
  %342 = bitcast i64* %8 to i8*
  call void @llvm.lifetime.end.p0i8(i64 8, i8* %342) #6
  %343 = load i32, i32* %9, align 4
  switch i32 %343, label %345 [
    i32 0, label %344
    i32 4, label %20
    i32 2, label %18
  ]

; <label>:344:                                    ; preds = %341
  br label %18

; <label>:345:                                    ; preds = %341
  %346 = bitcast i64* %7 to i8*
  call void @llvm.lifetime.end.p0i8(i64 8, i8* %346) #6
  ret void
}

; Function Attrs: alwaysinline nounwind sspstrong uwtable
define linkonce_odr hidden zeroext i1 @_ZNKSt3__16__lessIwwEclERKwS3_(%"struct.std::__1::__less"*, i32* dereferenceable(4), i32* dereferenceable(4)) #2 comdat align 2 {
  %4 = alloca %"struct.std::__1::__less"*, align 8
  %5 = alloca i32*, align 8
  %6 = alloca i32*, align 8
  store %"struct.std::__1::__less"* %0, %"struct.std::__1::__less"** %4, align 8, !tbaa !3
  store i32* %1, i32** %5, align 8, !tbaa !7
  store i32* %2, i32** %6, align 8, !tbaa !7
  %7 = load %"struct.std::__1::__less"*, %"struct.std::__1::__less"** %4, align 8
  %8 = load i32*, i32** %5, align 8
  %9 = load i32, i32* %8, align 4, !tbaa !15
  %10 = load i32*, i32** %6, align 8
  %11 = load i32, i32* %10, align 4, !tbaa !15
  %12 = icmp slt i32 %9, %11
  ret i1 %12
}

; Function Attrs: alwaysinline nounwind sspstrong uwtable
define linkonce_odr hidden void @_ZNSt3__14swapIwEENS_9enable_ifIXaasr21is_move_constructibleIT_EE5valuesr18is_move_assignableIS2_EE5valueEvE4typeERS2_S5_(i32* dereferenceable(4), i32* dereferenceable(4)) #2 comdat {
  %3 = alloca i32*, align 8
  %4 = alloca i32*, align 8
  %5 = alloca i32, align 4
  store i32* %0, i32** %3, align 8, !tbaa !7
  store i32* %1, i32** %4, align 8, !tbaa !7
  %6 = bitcast i32* %5 to i8*
  call void @llvm.lifetime.start.p0i8(i64 4, i8* %6) #6
  %7 = load i32*, i32** %3, align 8
  %8 = call dereferenceable(4) i32* @_ZNSt3__14moveIRwEEONS_16remove_referenceIT_E4typeEOS3_(i32* dereferenceable(4) %7) #6
  %9 = load i32, i32* %8, align 4, !tbaa !15
  store i32 %9, i32* %5, align 4, !tbaa !15
  %10 = load i32*, i32** %4, align 8
  %11 = call dereferenceable(4) i32* @_ZNSt3__14moveIRwEEONS_16remove_referenceIT_E4typeEOS3_(i32* dereferenceable(4) %10) #6
  %12 = load i32, i32* %11, align 4, !tbaa !15
  %13 = load i32*, i32** %3, align 8
  store i32 %12, i32* %13, align 4, !tbaa !15
  %14 = call dereferenceable(4) i32* @_ZNSt3__14moveIRwEEONS_16remove_referenceIT_E4typeEOS3_(i32* dereferenceable(4) %5) #6
  %15 = load i32, i32* %14, align 4, !tbaa !15
  %16 = load i32*, i32** %4, align 8
  store i32 %15, i32* %16, align 4, !tbaa !15
  %17 = bitcast i32* %5 to i8*
  call void @llvm.lifetime.end.p0i8(i64 4, i8* %17) #6
  ret void
}

; Function Attrs: nounwind sspstrong uwtable
define linkonce_odr i32 @_ZNSt3__17__sort3IRNS_6__lessIwwEEPwEEjT0_S5_S5_T_(i32*, i32*, i32*, %"struct.std::__1::__less"* dereferenceable(1)) #3 comdat {
  %5 = alloca i32, align 4
  %6 = alloca i32*, align 8
  %7 = alloca i32*, align 8
  %8 = alloca i32*, align 8
  %9 = alloca %"struct.std::__1::__less"*, align 8
  %10 = alloca i32, align 4
  %11 = alloca i32
  store i32* %0, i32** %6, align 8, !tbaa !3
  store i32* %1, i32** %7, align 8, !tbaa !3
  store i32* %2, i32** %8, align 8, !tbaa !3
  store %"struct.std::__1::__less"* %3, %"struct.std::__1::__less"** %9, align 8, !tbaa !7
  %12 = bitcast i32* %10 to i8*
  call void @llvm.lifetime.start.p0i8(i64 4, i8* %12) #6
  store i32 0, i32* %10, align 4, !tbaa !10
  %13 = load %"struct.std::__1::__less"*, %"struct.std::__1::__less"** %9, align 8
  %14 = load i32*, i32** %7, align 8, !tbaa !3
  %15 = load i32*, i32** %6, align 8, !tbaa !3
  %16 = call zeroext i1 @_ZNKSt3__16__lessIwwEclERKwS3_(%"struct.std::__1::__less"* %13, i32* dereferenceable(4) %14, i32* dereferenceable(4) %15)
  br i1 %16, label %36, label %17

; <label>:17:                                     ; preds = %4
  %18 = load %"struct.std::__1::__less"*, %"struct.std::__1::__less"** %9, align 8
  %19 = load i32*, i32** %8, align 8, !tbaa !3
  %20 = load i32*, i32** %7, align 8, !tbaa !3
  %21 = call zeroext i1 @_ZNKSt3__16__lessIwwEclERKwS3_(%"struct.std::__1::__less"* %18, i32* dereferenceable(4) %19, i32* dereferenceable(4) %20)
  br i1 %21, label %24, label %22

; <label>:22:                                     ; preds = %17
  %23 = load i32, i32* %10, align 4, !tbaa !10
  store i32 %23, i32* %5, align 4
  store i32 1, i32* %11, align 4
  br label %57

; <label>:24:                                     ; preds = %17
  %25 = load i32*, i32** %7, align 8, !tbaa !3
  %26 = load i32*, i32** %8, align 8, !tbaa !3
  call void @_ZNSt3__14swapIwEENS_9enable_ifIXaasr21is_move_constructibleIT_EE5valuesr18is_move_assignableIS2_EE5valueEvE4typeERS2_S5_(i32* dereferenceable(4) %25, i32* dereferenceable(4) %26) #6
  store i32 1, i32* %10, align 4, !tbaa !10
  %27 = load %"struct.std::__1::__less"*, %"struct.std::__1::__less"** %9, align 8
  %28 = load i32*, i32** %7, align 8, !tbaa !3
  %29 = load i32*, i32** %6, align 8, !tbaa !3
  %30 = call zeroext i1 @_ZNKSt3__16__lessIwwEclERKwS3_(%"struct.std::__1::__less"* %27, i32* dereferenceable(4) %28, i32* dereferenceable(4) %29)
  br i1 %30, label %31, label %34

; <label>:31:                                     ; preds = %24
  %32 = load i32*, i32** %6, align 8, !tbaa !3
  %33 = load i32*, i32** %7, align 8, !tbaa !3
  call void @_ZNSt3__14swapIwEENS_9enable_ifIXaasr21is_move_constructibleIT_EE5valuesr18is_move_assignableIS2_EE5valueEvE4typeERS2_S5_(i32* dereferenceable(4) %32, i32* dereferenceable(4) %33) #6
  store i32 2, i32* %10, align 4, !tbaa !10
  br label %34

; <label>:34:                                     ; preds = %31, %24
  %35 = load i32, i32* %10, align 4, !tbaa !10
  store i32 %35, i32* %5, align 4
  store i32 1, i32* %11, align 4
  br label %57

; <label>:36:                                     ; preds = %4
  %37 = load %"struct.std::__1::__less"*, %"struct.std::__1::__less"** %9, align 8
  %38 = load i32*, i32** %8, align 8, !tbaa !3
  %39 = load i32*, i32** %7, align 8, !tbaa !3
  %40 = call zeroext i1 @_ZNKSt3__16__lessIwwEclERKwS3_(%"struct.std::__1::__less"* %37, i32* dereferenceable(4) %38, i32* dereferenceable(4) %39)
  br i1 %40, label %41, label %45

; <label>:41:                                     ; preds = %36
  %42 = load i32*, i32** %6, align 8, !tbaa !3
  %43 = load i32*, i32** %8, align 8, !tbaa !3
  call void @_ZNSt3__14swapIwEENS_9enable_ifIXaasr21is_move_constructibleIT_EE5valuesr18is_move_assignableIS2_EE5valueEvE4typeERS2_S5_(i32* dereferenceable(4) %42, i32* dereferenceable(4) %43) #6
  store i32 1, i32* %10, align 4, !tbaa !10
  %44 = load i32, i32* %10, align 4, !tbaa !10
  store i32 %44, i32* %5, align 4
  store i32 1, i32* %11, align 4
  br label %57

; <label>:45:                                     ; preds = %36
  %46 = load i32*, i32** %6, align 8, !tbaa !3
  %47 = load i32*, i32** %7, align 8, !tbaa !3
  call void @_ZNSt3__14swapIwEENS_9enable_ifIXaasr21is_move_constructibleIT_EE5valuesr18is_move_assignableIS2_EE5valueEvE4typeERS2_S5_(i32* dereferenceable(4) %46, i32* dereferenceable(4) %47) #6
  store i32 1, i32* %10, align 4, !tbaa !10
  %48 = load %"struct.std::__1::__less"*, %"struct.std::__1::__less"** %9, align 8
  %49 = load i32*, i32** %8, align 8, !tbaa !3
  %50 = load i32*, i32** %7, align 8, !tbaa !3
  %51 = call zeroext i1 @_ZNKSt3__16__lessIwwEclERKwS3_(%"struct.std::__1::__less"* %48, i32* dereferenceable(4) %49, i32* dereferenceable(4) %50)
  br i1 %51, label %52, label %55

; <label>:52:                                     ; preds = %45
  %53 = load i32*, i32** %7, align 8, !tbaa !3
  %54 = load i32*, i32** %8, align 8, !tbaa !3
  call void @_ZNSt3__14swapIwEENS_9enable_ifIXaasr21is_move_constructibleIT_EE5valuesr18is_move_assignableIS2_EE5valueEvE4typeERS2_S5_(i32* dereferenceable(4) %53, i32* dereferenceable(4) %54) #6
  store i32 2, i32* %10, align 4, !tbaa !10
  br label %55

; <label>:55:                                     ; preds = %52, %45
  %56 = load i32, i32* %10, align 4, !tbaa !10
  store i32 %56, i32* %5, align 4
  store i32 1, i32* %11, align 4
  br label %57

; <label>:57:                                     ; preds = %55, %41, %34, %22
  %58 = bitcast i32* %10 to i8*
  call void @llvm.lifetime.end.p0i8(i64 4, i8* %58) #6
  %59 = load i32, i32* %5, align 4
  ret i32 %59
}

; Function Attrs: nounwind sspstrong uwtable
define linkonce_odr i32 @_ZNSt3__17__sort4IRNS_6__lessIwwEEPwEEjT0_S5_S5_S5_T_(i32*, i32*, i32*, i32*, %"struct.std::__1::__less"* dereferenceable(1)) #3 comdat {
  %6 = alloca i32*, align 8
  %7 = alloca i32*, align 8
  %8 = alloca i32*, align 8
  %9 = alloca i32*, align 8
  %10 = alloca %"struct.std::__1::__less"*, align 8
  %11 = alloca i32, align 4
  store i32* %0, i32** %6, align 8, !tbaa !3
  store i32* %1, i32** %7, align 8, !tbaa !3
  store i32* %2, i32** %8, align 8, !tbaa !3
  store i32* %3, i32** %9, align 8, !tbaa !3
  store %"struct.std::__1::__less"* %4, %"struct.std::__1::__less"** %10, align 8, !tbaa !7
  %12 = bitcast i32* %11 to i8*
  call void @llvm.lifetime.start.p0i8(i64 4, i8* %12) #6
  %13 = load i32*, i32** %6, align 8, !tbaa !3
  %14 = load i32*, i32** %7, align 8, !tbaa !3
  %15 = load i32*, i32** %8, align 8, !tbaa !3
  %16 = load %"struct.std::__1::__less"*, %"struct.std::__1::__less"** %10, align 8
  %17 = call i32 @_ZNSt3__17__sort3IRNS_6__lessIwwEEPwEEjT0_S5_S5_T_(i32* %13, i32* %14, i32* %15, %"struct.std::__1::__less"* dereferenceable(1) %16)
  store i32 %17, i32* %11, align 4, !tbaa !10
  %18 = load %"struct.std::__1::__less"*, %"struct.std::__1::__less"** %10, align 8
  %19 = load i32*, i32** %9, align 8, !tbaa !3
  %20 = load i32*, i32** %8, align 8, !tbaa !3
  %21 = call zeroext i1 @_ZNKSt3__16__lessIwwEclERKwS3_(%"struct.std::__1::__less"* %18, i32* dereferenceable(4) %19, i32* dereferenceable(4) %20)
  br i1 %21, label %22, label %47

; <label>:22:                                     ; preds = %5
  %23 = load i32*, i32** %8, align 8, !tbaa !3
  %24 = load i32*, i32** %9, align 8, !tbaa !3
  call void @_ZNSt3__14swapIwEENS_9enable_ifIXaasr21is_move_constructibleIT_EE5valuesr18is_move_assignableIS2_EE5valueEvE4typeERS2_S5_(i32* dereferenceable(4) %23, i32* dereferenceable(4) %24) #6
  %25 = load i32, i32* %11, align 4, !tbaa !10
  %26 = add i32 %25, 1
  store i32 %26, i32* %11, align 4, !tbaa !10
  %27 = load %"struct.std::__1::__less"*, %"struct.std::__1::__less"** %10, align 8
  %28 = load i32*, i32** %8, align 8, !tbaa !3
  %29 = load i32*, i32** %7, align 8, !tbaa !3
  %30 = call zeroext i1 @_ZNKSt3__16__lessIwwEclERKwS3_(%"struct.std::__1::__less"* %27, i32* dereferenceable(4) %28, i32* dereferenceable(4) %29)
  br i1 %30, label %31, label %46

; <label>:31:                                     ; preds = %22
  %32 = load i32*, i32** %7, align 8, !tbaa !3
  %33 = load i32*, i32** %8, align 8, !tbaa !3
  call void @_ZNSt3__14swapIwEENS_9enable_ifIXaasr21is_move_constructibleIT_EE5valuesr18is_move_assignableIS2_EE5valueEvE4typeERS2_S5_(i32* dereferenceable(4) %32, i32* dereferenceable(4) %33) #6
  %34 = load i32, i32* %11, align 4, !tbaa !10
  %35 = add i32 %34, 1
  store i32 %35, i32* %11, align 4, !tbaa !10
  %36 = load %"struct.std::__1::__less"*, %"struct.std::__1::__less"** %10, align 8
  %37 = load i32*, i32** %7, align 8, !tbaa !3
  %38 = load i32*, i32** %6, align 8, !tbaa !3
  %39 = call zeroext i1 @_ZNKSt3__16__lessIwwEclERKwS3_(%"struct.std::__1::__less"* %36, i32* dereferenceable(4) %37, i32* dereferenceable(4) %38)
  br i1 %39, label %40, label %45

; <label>:40:                                     ; preds = %31
  %41 = load i32*, i32** %6, align 8, !tbaa !3
  %42 = load i32*, i32** %7, align 8, !tbaa !3
  call void @_ZNSt3__14swapIwEENS_9enable_ifIXaasr21is_move_constructibleIT_EE5valuesr18is_move_assignableIS2_EE5valueEvE4typeERS2_S5_(i32* dereferenceable(4) %41, i32* dereferenceable(4) %42) #6
  %43 = load i32, i32* %11, align 4, !tbaa !10
  %44 = add i32 %43, 1
  store i32 %44, i32* %11, align 4, !tbaa !10
  br label %45

; <label>:45:                                     ; preds = %40, %31
  br label %46

; <label>:46:                                     ; preds = %45, %22
  br label %47

; <label>:47:                                     ; preds = %46, %5
  %48 = load i32, i32* %11, align 4, !tbaa !10
  %49 = bitcast i32* %11 to i8*
  call void @llvm.lifetime.end.p0i8(i64 4, i8* %49) #6
  ret i32 %48
}

; Function Attrs: nounwind sspstrong uwtable
define linkonce_odr i32 @_ZNSt3__17__sort5IRNS_6__lessIwwEEPwEEjT0_S5_S5_S5_S5_T_(i32*, i32*, i32*, i32*, i32*, %"struct.std::__1::__less"* dereferenceable(1)) #3 comdat {
  %7 = alloca i32*, align 8
  %8 = alloca i32*, align 8
  %9 = alloca i32*, align 8
  %10 = alloca i32*, align 8
  %11 = alloca i32*, align 8
  %12 = alloca %"struct.std::__1::__less"*, align 8
  %13 = alloca i32, align 4
  store i32* %0, i32** %7, align 8, !tbaa !3
  store i32* %1, i32** %8, align 8, !tbaa !3
  store i32* %2, i32** %9, align 8, !tbaa !3
  store i32* %3, i32** %10, align 8, !tbaa !3
  store i32* %4, i32** %11, align 8, !tbaa !3
  store %"struct.std::__1::__less"* %5, %"struct.std::__1::__less"** %12, align 8, !tbaa !7
  %14 = bitcast i32* %13 to i8*
  call void @llvm.lifetime.start.p0i8(i64 4, i8* %14) #6
  %15 = load i32*, i32** %7, align 8, !tbaa !3
  %16 = load i32*, i32** %8, align 8, !tbaa !3
  %17 = load i32*, i32** %9, align 8, !tbaa !3
  %18 = load i32*, i32** %10, align 8, !tbaa !3
  %19 = load %"struct.std::__1::__less"*, %"struct.std::__1::__less"** %12, align 8
  %20 = call i32 @_ZNSt3__17__sort4IRNS_6__lessIwwEEPwEEjT0_S5_S5_S5_T_(i32* %15, i32* %16, i32* %17, i32* %18, %"struct.std::__1::__less"* dereferenceable(1) %19)
  store i32 %20, i32* %13, align 4, !tbaa !10
  %21 = load %"struct.std::__1::__less"*, %"struct.std::__1::__less"** %12, align 8
  %22 = load i32*, i32** %11, align 8, !tbaa !3
  %23 = load i32*, i32** %10, align 8, !tbaa !3
  %24 = call zeroext i1 @_ZNKSt3__16__lessIwwEclERKwS3_(%"struct.std::__1::__less"* %21, i32* dereferenceable(4) %22, i32* dereferenceable(4) %23)
  br i1 %24, label %25, label %60

; <label>:25:                                     ; preds = %6
  %26 = load i32*, i32** %10, align 8, !tbaa !3
  %27 = load i32*, i32** %11, align 8, !tbaa !3
  call void @_ZNSt3__14swapIwEENS_9enable_ifIXaasr21is_move_constructibleIT_EE5valuesr18is_move_assignableIS2_EE5valueEvE4typeERS2_S5_(i32* dereferenceable(4) %26, i32* dereferenceable(4) %27) #6
  %28 = load i32, i32* %13, align 4, !tbaa !10
  %29 = add i32 %28, 1
  store i32 %29, i32* %13, align 4, !tbaa !10
  %30 = load %"struct.std::__1::__less"*, %"struct.std::__1::__less"** %12, align 8
  %31 = load i32*, i32** %10, align 8, !tbaa !3
  %32 = load i32*, i32** %9, align 8, !tbaa !3
  %33 = call zeroext i1 @_ZNKSt3__16__lessIwwEclERKwS3_(%"struct.std::__1::__less"* %30, i32* dereferenceable(4) %31, i32* dereferenceable(4) %32)
  br i1 %33, label %34, label %59

; <label>:34:                                     ; preds = %25
  %35 = load i32*, i32** %9, align 8, !tbaa !3
  %36 = load i32*, i32** %10, align 8, !tbaa !3
  call void @_ZNSt3__14swapIwEENS_9enable_ifIXaasr21is_move_constructibleIT_EE5valuesr18is_move_assignableIS2_EE5valueEvE4typeERS2_S5_(i32* dereferenceable(4) %35, i32* dereferenceable(4) %36) #6
  %37 = load i32, i32* %13, align 4, !tbaa !10
  %38 = add i32 %37, 1
  store i32 %38, i32* %13, align 4, !tbaa !10
  %39 = load %"struct.std::__1::__less"*, %"struct.std::__1::__less"** %12, align 8
  %40 = load i32*, i32** %9, align 8, !tbaa !3
  %41 = load i32*, i32** %8, align 8, !tbaa !3
  %42 = call zeroext i1 @_ZNKSt3__16__lessIwwEclERKwS3_(%"struct.std::__1::__less"* %39, i32* dereferenceable(4) %40, i32* dereferenceable(4) %41)
  br i1 %42, label %43, label %58

; <label>:43:                                     ; preds = %34
  %44 = load i32*, i32** %8, align 8, !tbaa !3
  %45 = load i32*, i32** %9, align 8, !tbaa !3
  call void @_ZNSt3__14swapIwEENS_9enable_ifIXaasr21is_move_constructibleIT_EE5valuesr18is_move_assignableIS2_EE5valueEvE4typeERS2_S5_(i32* dereferenceable(4) %44, i32* dereferenceable(4) %45) #6
  %46 = load i32, i32* %13, align 4, !tbaa !10
  %47 = add i32 %46, 1
  store i32 %47, i32* %13, align 4, !tbaa !10
  %48 = load %"struct.std::__1::__less"*, %"struct.std::__1::__less"** %12, align 8
  %49 = load i32*, i32** %8, align 8, !tbaa !3
  %50 = load i32*, i32** %7, align 8, !tbaa !3
  %51 = call zeroext i1 @_ZNKSt3__16__lessIwwEclERKwS3_(%"struct.std::__1::__less"* %48, i32* dereferenceable(4) %49, i32* dereferenceable(4) %50)
  br i1 %51, label %52, label %57

; <label>:52:                                     ; preds = %43
  %53 = load i32*, i32** %7, align 8, !tbaa !3
  %54 = load i32*, i32** %8, align 8, !tbaa !3
  call void @_ZNSt3__14swapIwEENS_9enable_ifIXaasr21is_move_constructibleIT_EE5valuesr18is_move_assignableIS2_EE5valueEvE4typeERS2_S5_(i32* dereferenceable(4) %53, i32* dereferenceable(4) %54) #6
  %55 = load i32, i32* %13, align 4, !tbaa !10
  %56 = add i32 %55, 1
  store i32 %56, i32* %13, align 4, !tbaa !10
  br label %57

; <label>:57:                                     ; preds = %52, %43
  br label %58

; <label>:58:                                     ; preds = %57, %34
  br label %59

; <label>:59:                                     ; preds = %58, %25
  br label %60

; <label>:60:                                     ; preds = %59, %6
  %61 = load i32, i32* %13, align 4, !tbaa !10
  %62 = bitcast i32* %13 to i8*
  call void @llvm.lifetime.end.p0i8(i64 4, i8* %62) #6
  ret i32 %61
}

; Function Attrs: nounwind sspstrong uwtable
define linkonce_odr void @_ZNSt3__118__insertion_sort_3IRNS_6__lessIwwEEPwEEvT0_S5_T_(i32*, i32*, %"struct.std::__1::__less"* dereferenceable(1)) #3 comdat {
  %4 = alloca i32*, align 8
  %5 = alloca i32*, align 8
  %6 = alloca %"struct.std::__1::__less"*, align 8
  %7 = alloca i32*, align 8
  %8 = alloca i32*, align 8
  %9 = alloca i32, align 4
  %10 = alloca i32*, align 8
  store i32* %0, i32** %4, align 8, !tbaa !3
  store i32* %1, i32** %5, align 8, !tbaa !3
  store %"struct.std::__1::__less"* %2, %"struct.std::__1::__less"** %6, align 8, !tbaa !7
  %11 = bitcast i32** %7 to i8*
  call void @llvm.lifetime.start.p0i8(i64 8, i8* %11) #6
  %12 = load i32*, i32** %4, align 8, !tbaa !3
  %13 = getelementptr i32, i32* %12, i64 2
  store i32* %13, i32** %7, align 8, !tbaa !3
  %14 = load i32*, i32** %4, align 8, !tbaa !3
  %15 = load i32*, i32** %4, align 8, !tbaa !3
  %16 = getelementptr i32, i32* %15, i64 1
  %17 = load i32*, i32** %7, align 8, !tbaa !3
  %18 = load %"struct.std::__1::__less"*, %"struct.std::__1::__less"** %6, align 8
  %19 = call i32 @_ZNSt3__17__sort3IRNS_6__lessIwwEEPwEEjT0_S5_S5_T_(i32* %14, i32* %16, i32* %17, %"struct.std::__1::__less"* dereferenceable(1) %18)
  %20 = bitcast i32** %8 to i8*
  call void @llvm.lifetime.start.p0i8(i64 8, i8* %20) #6
  %21 = load i32*, i32** %7, align 8, !tbaa !3
  %22 = getelementptr i32, i32* %21, i64 1
  store i32* %22, i32** %8, align 8, !tbaa !3
  br label %23

; <label>:23:                                     ; preds = %67, %3
  %24 = load i32*, i32** %8, align 8, !tbaa !3
  %25 = load i32*, i32** %5, align 8, !tbaa !3
  %26 = icmp ne i32* %24, %25
  br i1 %26, label %29, label %27

; <label>:27:                                     ; preds = %23
  %28 = bitcast i32** %8 to i8*
  call void @llvm.lifetime.end.p0i8(i64 8, i8* %28) #6
  br label %70

; <label>:29:                                     ; preds = %23
  %30 = load %"struct.std::__1::__less"*, %"struct.std::__1::__less"** %6, align 8
  %31 = load i32*, i32** %8, align 8, !tbaa !3
  %32 = load i32*, i32** %7, align 8, !tbaa !3
  %33 = call zeroext i1 @_ZNKSt3__16__lessIwwEclERKwS3_(%"struct.std::__1::__less"* %30, i32* dereferenceable(4) %31, i32* dereferenceable(4) %32)
  br i1 %33, label %34, label %65

; <label>:34:                                     ; preds = %29
  %35 = bitcast i32* %9 to i8*
  call void @llvm.lifetime.start.p0i8(i64 4, i8* %35) #6
  %36 = load i32*, i32** %8, align 8, !tbaa !3
  %37 = call dereferenceable(4) i32* @_ZNSt3__14moveIRwEEONS_16remove_referenceIT_E4typeEOS3_(i32* dereferenceable(4) %36) #6
  %38 = load i32, i32* %37, align 4, !tbaa !15
  store i32 %38, i32* %9, align 4, !tbaa !15
  %39 = bitcast i32** %10 to i8*
  call void @llvm.lifetime.start.p0i8(i64 8, i8* %39) #6
  %40 = load i32*, i32** %7, align 8, !tbaa !3
  store i32* %40, i32** %10, align 8, !tbaa !3
  %41 = load i32*, i32** %8, align 8, !tbaa !3
  store i32* %41, i32** %7, align 8, !tbaa !3
  br label %42

; <label>:42:                                     ; preds = %57, %34
  %43 = load i32*, i32** %10, align 8, !tbaa !3
  %44 = call dereferenceable(4) i32* @_ZNSt3__14moveIRwEEONS_16remove_referenceIT_E4typeEOS3_(i32* dereferenceable(4) %43) #6
  %45 = load i32, i32* %44, align 4, !tbaa !15
  %46 = load i32*, i32** %7, align 8, !tbaa !3
  store i32 %45, i32* %46, align 4, !tbaa !15
  %47 = load i32*, i32** %10, align 8, !tbaa !3
  store i32* %47, i32** %7, align 8, !tbaa !3
  br label %48

; <label>:48:                                     ; preds = %42
  %49 = load i32*, i32** %7, align 8, !tbaa !3
  %50 = load i32*, i32** %4, align 8, !tbaa !3
  %51 = icmp ne i32* %49, %50
  br i1 %51, label %52, label %57

; <label>:52:                                     ; preds = %48
  %53 = load %"struct.std::__1::__less"*, %"struct.std::__1::__less"** %6, align 8
  %54 = load i32*, i32** %10, align 8, !tbaa !3
  %55 = getelementptr i32, i32* %54, i32 -1
  store i32* %55, i32** %10, align 8, !tbaa !3
  %56 = call zeroext i1 @_ZNKSt3__16__lessIwwEclERKwS3_(%"struct.std::__1::__less"* %53, i32* dereferenceable(4) %9, i32* dereferenceable(4) %55)
  br label %57

; <label>:57:                                     ; preds = %52, %48
  %58 = phi i1 [ false, %48 ], [ %56, %52 ]
  br i1 %58, label %42, label %59

; <label>:59:                                     ; preds = %57
  %60 = call dereferenceable(4) i32* @_ZNSt3__14moveIRwEEONS_16remove_referenceIT_E4typeEOS3_(i32* dereferenceable(4) %9) #6
  %61 = load i32, i32* %60, align 4, !tbaa !15
  %62 = load i32*, i32** %7, align 8, !tbaa !3
  store i32 %61, i32* %62, align 4, !tbaa !15
  %63 = bitcast i32** %10 to i8*
  call void @llvm.lifetime.end.p0i8(i64 8, i8* %63) #6
  %64 = bitcast i32* %9 to i8*
  call void @llvm.lifetime.end.p0i8(i64 4, i8* %64) #6
  br label %65

; <label>:65:                                     ; preds = %59, %29
  %66 = load i32*, i32** %8, align 8, !tbaa !3
  store i32* %66, i32** %7, align 8, !tbaa !3
  br label %67

; <label>:67:                                     ; preds = %65
  %68 = load i32*, i32** %8, align 8, !tbaa !3
  %69 = getelementptr i32, i32* %68, i32 1
  store i32* %69, i32** %8, align 8, !tbaa !3
  br label %23

; <label>:70:                                     ; preds = %27
  %71 = bitcast i32** %7 to i8*
  call void @llvm.lifetime.end.p0i8(i64 8, i8* %71) #6
  ret void
}

; Function Attrs: sspstrong uwtable
define weak_odr zeroext i1 @_ZNSt3__127__insertion_sort_incompleteIRNS_6__lessIwwEEPwEEbT0_S5_T_(i32*, i32*, %"struct.std::__1::__less"* dereferenceable(1)) #0 comdat {
  %4 = alloca i1, align 1
  %5 = alloca i32*, align 8
  %6 = alloca i32*, align 8
  %7 = alloca %"struct.std::__1::__less"*, align 8
  %8 = alloca i32*, align 8
  %9 = alloca i32, align 4
  %10 = alloca i32, align 4
  %11 = alloca i32*, align 8
  %12 = alloca i32
  %13 = alloca i32, align 4
  %14 = alloca i32*, align 8
  store i32* %0, i32** %5, align 8, !tbaa !3
  store i32* %1, i32** %6, align 8, !tbaa !3
  store %"struct.std::__1::__less"* %2, %"struct.std::__1::__less"** %7, align 8, !tbaa !7
  %15 = load i32*, i32** %6, align 8, !tbaa !3
  %16 = load i32*, i32** %5, align 8, !tbaa !3
  %17 = ptrtoint i32* %15 to i64
  %18 = ptrtoint i32* %16 to i64
  %19 = sub i64 %17, %18
  %20 = sdiv exact i64 %19, 4
  switch i64 %20, label %62 [
    i64 0, label %21
    i64 1, label %21
    i64 2, label %22
    i64 3, label %32
    i64 4, label %40
    i64 5, label %50
  ]

; <label>:21:                                     ; preds = %3, %3
  store i1 true, i1* %4, align 1
  br label %143

; <label>:22:                                     ; preds = %3
  %23 = load %"struct.std::__1::__less"*, %"struct.std::__1::__less"** %7, align 8
  %24 = load i32*, i32** %6, align 8, !tbaa !3
  %25 = getelementptr i32, i32* %24, i32 -1
  store i32* %25, i32** %6, align 8, !tbaa !3
  %26 = load i32*, i32** %5, align 8, !tbaa !3
  %27 = call zeroext i1 @_ZNKSt3__16__lessIwwEclERKwS3_(%"struct.std::__1::__less"* %23, i32* dereferenceable(4) %25, i32* dereferenceable(4) %26)
  br i1 %27, label %28, label %31

; <label>:28:                                     ; preds = %22
  %29 = load i32*, i32** %5, align 8, !tbaa !3
  %30 = load i32*, i32** %6, align 8, !tbaa !3
  call void @_ZNSt3__14swapIwEENS_9enable_ifIXaasr21is_move_constructibleIT_EE5valuesr18is_move_assignableIS2_EE5valueEvE4typeERS2_S5_(i32* dereferenceable(4) %29, i32* dereferenceable(4) %30) #6
  br label %31

; <label>:31:                                     ; preds = %28, %22
  store i1 true, i1* %4, align 1
  br label %143

; <label>:32:                                     ; preds = %3
  %33 = load i32*, i32** %5, align 8, !tbaa !3
  %34 = load i32*, i32** %5, align 8, !tbaa !3
  %35 = getelementptr i32, i32* %34, i64 1
  %36 = load i32*, i32** %6, align 8, !tbaa !3
  %37 = getelementptr i32, i32* %36, i32 -1
  store i32* %37, i32** %6, align 8, !tbaa !3
  %38 = load %"struct.std::__1::__less"*, %"struct.std::__1::__less"** %7, align 8
  %39 = call i32 @_ZNSt3__17__sort3IRNS_6__lessIwwEEPwEEjT0_S5_S5_T_(i32* %33, i32* %35, i32* %37, %"struct.std::__1::__less"* dereferenceable(1) %38)
  store i1 true, i1* %4, align 1
  br label %143

; <label>:40:                                     ; preds = %3
  %41 = load i32*, i32** %5, align 8, !tbaa !3
  %42 = load i32*, i32** %5, align 8, !tbaa !3
  %43 = getelementptr i32, i32* %42, i64 1
  %44 = load i32*, i32** %5, align 8, !tbaa !3
  %45 = getelementptr i32, i32* %44, i64 2
  %46 = load i32*, i32** %6, align 8, !tbaa !3
  %47 = getelementptr i32, i32* %46, i32 -1
  store i32* %47, i32** %6, align 8, !tbaa !3
  %48 = load %"struct.std::__1::__less"*, %"struct.std::__1::__less"** %7, align 8
  %49 = call i32 @_ZNSt3__17__sort4IRNS_6__lessIwwEEPwEEjT0_S5_S5_S5_T_(i32* %41, i32* %43, i32* %45, i32* %47, %"struct.std::__1::__less"* dereferenceable(1) %48)
  store i1 true, i1* %4, align 1
  br label %143

; <label>:50:                                     ; preds = %3
  %51 = load i32*, i32** %5, align 8, !tbaa !3
  %52 = load i32*, i32** %5, align 8, !tbaa !3
  %53 = getelementptr i32, i32* %52, i64 1
  %54 = load i32*, i32** %5, align 8, !tbaa !3
  %55 = getelementptr i32, i32* %54, i64 2
  %56 = load i32*, i32** %5, align 8, !tbaa !3
  %57 = getelementptr i32, i32* %56, i64 3
  %58 = load i32*, i32** %6, align 8, !tbaa !3
  %59 = getelementptr i32, i32* %58, i32 -1
  store i32* %59, i32** %6, align 8, !tbaa !3
  %60 = load %"struct.std::__1::__less"*, %"struct.std::__1::__less"** %7, align 8
  %61 = call i32 @_ZNSt3__17__sort5IRNS_6__lessIwwEEPwEEjT0_S5_S5_S5_S5_T_(i32* %51, i32* %53, i32* %55, i32* %57, i32* %59, %"struct.std::__1::__less"* dereferenceable(1) %60)
  store i1 true, i1* %4, align 1
  br label %143

; <label>:62:                                     ; preds = %3
  %63 = bitcast i32** %8 to i8*
  call void @llvm.lifetime.start.p0i8(i64 8, i8* %63) #6
  %64 = load i32*, i32** %5, align 8, !tbaa !3
  %65 = getelementptr i32, i32* %64, i64 2
  store i32* %65, i32** %8, align 8, !tbaa !3
  %66 = load i32*, i32** %5, align 8, !tbaa !3
  %67 = load i32*, i32** %5, align 8, !tbaa !3
  %68 = getelementptr i32, i32* %67, i64 1
  %69 = load i32*, i32** %8, align 8, !tbaa !3
  %70 = load %"struct.std::__1::__less"*, %"struct.std::__1::__less"** %7, align 8
  %71 = call i32 @_ZNSt3__17__sort3IRNS_6__lessIwwEEPwEEjT0_S5_S5_T_(i32* %66, i32* %68, i32* %69, %"struct.std::__1::__less"* dereferenceable(1) %70)
  %72 = bitcast i32* %9 to i8*
  call void @llvm.lifetime.start.p0i8(i64 4, i8* %72) #6
  store i32 8, i32* %9, align 4, !tbaa !10
  %73 = bitcast i32* %10 to i8*
  call void @llvm.lifetime.start.p0i8(i64 4, i8* %73) #6
  store i32 0, i32* %10, align 4, !tbaa !10
  %74 = bitcast i32** %11 to i8*
  call void @llvm.lifetime.start.p0i8(i64 8, i8* %74) #6
  %75 = load i32*, i32** %8, align 8, !tbaa !3
  %76 = getelementptr i32, i32* %75, i64 1
  store i32* %76, i32** %11, align 8, !tbaa !3
  br label %77

; <label>:77:                                     ; preds = %132, %62
  %78 = load i32*, i32** %11, align 8, !tbaa !3
  %79 = load i32*, i32** %6, align 8, !tbaa !3
  %80 = icmp ne i32* %78, %79
  br i1 %80, label %82, label %81

; <label>:81:                                     ; preds = %77
  store i32 3, i32* %12, align 4
  br label %135

; <label>:82:                                     ; preds = %77
  %83 = load %"struct.std::__1::__less"*, %"struct.std::__1::__less"** %7, align 8
  %84 = load i32*, i32** %11, align 8, !tbaa !3
  %85 = load i32*, i32** %8, align 8, !tbaa !3
  %86 = call zeroext i1 @_ZNKSt3__16__lessIwwEclERKwS3_(%"struct.std::__1::__less"* %83, i32* dereferenceable(4) %84, i32* dereferenceable(4) %85)
  br i1 %86, label %87, label %130

; <label>:87:                                     ; preds = %82
  %88 = bitcast i32* %13 to i8*
  call void @llvm.lifetime.start.p0i8(i64 4, i8* %88) #6
  %89 = load i32*, i32** %11, align 8, !tbaa !3
  %90 = call dereferenceable(4) i32* @_ZNSt3__14moveIRwEEONS_16remove_referenceIT_E4typeEOS3_(i32* dereferenceable(4) %89) #6
  %91 = load i32, i32* %90, align 4, !tbaa !15
  store i32 %91, i32* %13, align 4, !tbaa !15
  %92 = bitcast i32** %14 to i8*
  call void @llvm.lifetime.start.p0i8(i64 8, i8* %92) #6
  %93 = load i32*, i32** %8, align 8, !tbaa !3
  store i32* %93, i32** %14, align 8, !tbaa !3
  %94 = load i32*, i32** %11, align 8, !tbaa !3
  store i32* %94, i32** %8, align 8, !tbaa !3
  br label %95

; <label>:95:                                     ; preds = %110, %87
  %96 = load i32*, i32** %14, align 8, !tbaa !3
  %97 = call dereferenceable(4) i32* @_ZNSt3__14moveIRwEEONS_16remove_referenceIT_E4typeEOS3_(i32* dereferenceable(4) %96) #6
  %98 = load i32, i32* %97, align 4, !tbaa !15
  %99 = load i32*, i32** %8, align 8, !tbaa !3
  store i32 %98, i32* %99, align 4, !tbaa !15
  %100 = load i32*, i32** %14, align 8, !tbaa !3
  store i32* %100, i32** %8, align 8, !tbaa !3
  br label %101

; <label>:101:                                    ; preds = %95
  %102 = load i32*, i32** %8, align 8, !tbaa !3
  %103 = load i32*, i32** %5, align 8, !tbaa !3
  %104 = icmp ne i32* %102, %103
  br i1 %104, label %105, label %110

; <label>:105:                                    ; preds = %101
  %106 = load %"struct.std::__1::__less"*, %"struct.std::__1::__less"** %7, align 8
  %107 = load i32*, i32** %14, align 8, !tbaa !3
  %108 = getelementptr i32, i32* %107, i32 -1
  store i32* %108, i32** %14, align 8, !tbaa !3
  %109 = call zeroext i1 @_ZNKSt3__16__lessIwwEclERKwS3_(%"struct.std::__1::__less"* %106, i32* dereferenceable(4) %13, i32* dereferenceable(4) %108)
  br label %110

; <label>:110:                                    ; preds = %105, %101
  %111 = phi i1 [ false, %101 ], [ %109, %105 ]
  br i1 %111, label %95, label %112

; <label>:112:                                    ; preds = %110
  %113 = call dereferenceable(4) i32* @_ZNSt3__14moveIRwEEONS_16remove_referenceIT_E4typeEOS3_(i32* dereferenceable(4) %13) #6
  %114 = load i32, i32* %113, align 4, !tbaa !15
  %115 = load i32*, i32** %8, align 8, !tbaa !3
  store i32 %114, i32* %115, align 4, !tbaa !15
  %116 = load i32, i32* %10, align 4, !tbaa !10
  %117 = add i32 %116, 1
  store i32 %117, i32* %10, align 4, !tbaa !10
  %118 = icmp eq i32 %117, 8
  br i1 %118, label %119, label %124

; <label>:119:                                    ; preds = %112
  %120 = load i32*, i32** %11, align 8, !tbaa !3
  %121 = getelementptr i32, i32* %120, i32 1
  store i32* %121, i32** %11, align 8, !tbaa !3
  %122 = load i32*, i32** %6, align 8, !tbaa !3
  %123 = icmp eq i32* %121, %122
  store i1 %123, i1* %4, align 1
  store i32 1, i32* %12, align 4
  br label %125

; <label>:124:                                    ; preds = %112
  store i32 0, i32* %12, align 4
  br label %125

; <label>:125:                                    ; preds = %124, %119
  %126 = bitcast i32** %14 to i8*
  call void @llvm.lifetime.end.p0i8(i64 8, i8* %126) #6
  %127 = bitcast i32* %13 to i8*
  call void @llvm.lifetime.end.p0i8(i64 4, i8* %127) #6
  %128 = load i32, i32* %12, align 4
  switch i32 %128, label %135 [
    i32 0, label %129
  ]

; <label>:129:                                    ; preds = %125
  br label %130

; <label>:130:                                    ; preds = %129, %82
  %131 = load i32*, i32** %11, align 8, !tbaa !3
  store i32* %131, i32** %8, align 8, !tbaa !3
  br label %132

; <label>:132:                                    ; preds = %130
  %133 = load i32*, i32** %11, align 8, !tbaa !3
  %134 = getelementptr i32, i32* %133, i32 1
  store i32* %134, i32** %11, align 8, !tbaa !3
  br label %77

; <label>:135:                                    ; preds = %125, %81
  %136 = bitcast i32** %11 to i8*
  call void @llvm.lifetime.end.p0i8(i64 8, i8* %136) #6
  %137 = load i32, i32* %12, align 4
  switch i32 %137, label %139 [
    i32 3, label %138
  ]

; <label>:138:                                    ; preds = %135
  store i1 true, i1* %4, align 1
  store i32 1, i32* %12, align 4
  br label %139

; <label>:139:                                    ; preds = %138, %135
  %140 = bitcast i32* %10 to i8*
  call void @llvm.lifetime.end.p0i8(i64 4, i8* %140) #6
  %141 = bitcast i32* %9 to i8*
  call void @llvm.lifetime.end.p0i8(i64 4, i8* %141) #6
  %142 = bitcast i32** %8 to i8*
  call void @llvm.lifetime.end.p0i8(i64 8, i8* %142) #6
  br label %143

; <label>:143:                                    ; preds = %139, %50, %40, %32, %31, %21
  %144 = load i1, i1* %4, align 1
  ret i1 %144
}

; Function Attrs: alwaysinline nounwind sspstrong uwtable
define linkonce_odr hidden dereferenceable(4) i32* @_ZNSt3__14moveIRwEEONS_16remove_referenceIT_E4typeEOS3_(i32* dereferenceable(4)) #2 comdat {
  %2 = alloca i32*, align 8
  store i32* %0, i32** %2, align 8, !tbaa !7
  %3 = load i32*, i32** %2, align 8
  ret i32* %3
}

; Function Attrs: sspstrong uwtable
define weak_odr void @_ZNSt3__16__sortIRNS_6__lessIaaEEPaEEvT0_S5_T_(i8*, i8*, %"struct.std::__1::__less"* dereferenceable(1)) #0 comdat {
  %4 = alloca i8*, align 8
  %5 = alloca i8*, align 8
  %6 = alloca %"struct.std::__1::__less"*, align 8
  %7 = alloca i64, align 8
  %8 = alloca i64, align 8
  %9 = alloca i32
  %10 = alloca i8*, align 8
  %11 = alloca i8*, align 8
  %12 = alloca i32, align 4
  %13 = alloca i64, align 8
  %14 = alloca i8*, align 8
  %15 = alloca i8*, align 8
  %16 = alloca i8, align 1
  store i8* %0, i8** %4, align 8, !tbaa !3
  store i8* %1, i8** %5, align 8, !tbaa !3
  store %"struct.std::__1::__less"* %2, %"struct.std::__1::__less"** %6, align 8, !tbaa !7
  %17 = bitcast i64* %7 to i8*
  call void @llvm.lifetime.start.p0i8(i64 8, i8* %17) #6
  store i64 30, i64* %7, align 8, !tbaa !8
  br label %18

; <label>:18:                                     ; preds = %341, %338, %3
  br label %19

; <label>:19:                                     ; preds = %18
  br label %20

; <label>:20:                                     ; preds = %338, %19
  %21 = bitcast i64* %8 to i8*
  call void @llvm.lifetime.start.p0i8(i64 8, i8* %21) #6
  %22 = load i8*, i8** %5, align 8, !tbaa !3
  %23 = load i8*, i8** %4, align 8, !tbaa !3
  %24 = ptrtoint i8* %22 to i64
  %25 = ptrtoint i8* %23 to i64
  %26 = sub i64 %24, %25
  store i64 %26, i64* %8, align 8, !tbaa !8
  %27 = load i64, i64* %8, align 8, !tbaa !8
  switch i64 %27, label %69 [
    i64 0, label %28
    i64 1, label %28
    i64 2, label %29
    i64 3, label %39
    i64 4, label %47
    i64 5, label %57
  ]

; <label>:28:                                     ; preds = %20, %20
  store i32 1, i32* %9, align 4
  br label %338

; <label>:29:                                     ; preds = %20
  %30 = load %"struct.std::__1::__less"*, %"struct.std::__1::__less"** %6, align 8
  %31 = load i8*, i8** %5, align 8, !tbaa !3
  %32 = getelementptr i8, i8* %31, i32 -1
  store i8* %32, i8** %5, align 8, !tbaa !3
  %33 = load i8*, i8** %4, align 8, !tbaa !3
  %34 = call zeroext i1 @_ZNKSt3__16__lessIaaEclERKaS3_(%"struct.std::__1::__less"* %30, i8* dereferenceable(1) %32, i8* dereferenceable(1) %33)
  br i1 %34, label %35, label %38

; <label>:35:                                     ; preds = %29
  %36 = load i8*, i8** %4, align 8, !tbaa !3
  %37 = load i8*, i8** %5, align 8, !tbaa !3
  call void @_ZNSt3__14swapIaEENS_9enable_ifIXaasr21is_move_constructibleIT_EE5valuesr18is_move_assignableIS2_EE5valueEvE4typeERS2_S5_(i8* dereferenceable(1) %36, i8* dereferenceable(1) %37) #6
  br label %38

; <label>:38:                                     ; preds = %35, %29
  store i32 1, i32* %9, align 4
  br label %338

; <label>:39:                                     ; preds = %20
  %40 = load i8*, i8** %4, align 8, !tbaa !3
  %41 = load i8*, i8** %4, align 8, !tbaa !3
  %42 = getelementptr i8, i8* %41, i64 1
  %43 = load i8*, i8** %5, align 8, !tbaa !3
  %44 = getelementptr i8, i8* %43, i32 -1
  store i8* %44, i8** %5, align 8, !tbaa !3
  %45 = load %"struct.std::__1::__less"*, %"struct.std::__1::__less"** %6, align 8
  %46 = call i32 @_ZNSt3__17__sort3IRNS_6__lessIaaEEPaEEjT0_S5_S5_T_(i8* %40, i8* %42, i8* %44, %"struct.std::__1::__less"* dereferenceable(1) %45)
  store i32 1, i32* %9, align 4
  br label %338

; <label>:47:                                     ; preds = %20
  %48 = load i8*, i8** %4, align 8, !tbaa !3
  %49 = load i8*, i8** %4, align 8, !tbaa !3
  %50 = getelementptr i8, i8* %49, i64 1
  %51 = load i8*, i8** %4, align 8, !tbaa !3
  %52 = getelementptr i8, i8* %51, i64 2
  %53 = load i8*, i8** %5, align 8, !tbaa !3
  %54 = getelementptr i8, i8* %53, i32 -1
  store i8* %54, i8** %5, align 8, !tbaa !3
  %55 = load %"struct.std::__1::__less"*, %"struct.std::__1::__less"** %6, align 8
  %56 = call i32 @_ZNSt3__17__sort4IRNS_6__lessIaaEEPaEEjT0_S5_S5_S5_T_(i8* %48, i8* %50, i8* %52, i8* %54, %"struct.std::__1::__less"* dereferenceable(1) %55)
  store i32 1, i32* %9, align 4
  br label %338

; <label>:57:                                     ; preds = %20
  %58 = load i8*, i8** %4, align 8, !tbaa !3
  %59 = load i8*, i8** %4, align 8, !tbaa !3
  %60 = getelementptr i8, i8* %59, i64 1
  %61 = load i8*, i8** %4, align 8, !tbaa !3
  %62 = getelementptr i8, i8* %61, i64 2
  %63 = load i8*, i8** %4, align 8, !tbaa !3
  %64 = getelementptr i8, i8* %63, i64 3
  %65 = load i8*, i8** %5, align 8, !tbaa !3
  %66 = getelementptr i8, i8* %65, i32 -1
  store i8* %66, i8** %5, align 8, !tbaa !3
  %67 = load %"struct.std::__1::__less"*, %"struct.std::__1::__less"** %6, align 8
  %68 = call i32 @_ZNSt3__17__sort5IRNS_6__lessIaaEEPaEEjT0_S5_S5_S5_S5_T_(i8* %58, i8* %60, i8* %62, i8* %64, i8* %66, %"struct.std::__1::__less"* dereferenceable(1) %67)
  store i32 1, i32* %9, align 4
  br label %338

; <label>:69:                                     ; preds = %20
  %70 = load i64, i64* %8, align 8, !tbaa !8
  %71 = icmp sle i64 %70, 30
  br i1 %71, label %72, label %76

; <label>:72:                                     ; preds = %69
  %73 = load i8*, i8** %4, align 8, !tbaa !3
  %74 = load i8*, i8** %5, align 8, !tbaa !3
  %75 = load %"struct.std::__1::__less"*, %"struct.std::__1::__less"** %6, align 8
  call void @_ZNSt3__118__insertion_sort_3IRNS_6__lessIaaEEPaEEvT0_S5_T_(i8* %73, i8* %74, %"struct.std::__1::__less"* dereferenceable(1) %75)
  store i32 1, i32* %9, align 4
  br label %338

; <label>:76:                                     ; preds = %69
  %77 = bitcast i8** %10 to i8*
  call void @llvm.lifetime.start.p0i8(i64 8, i8* %77) #6
  %78 = load i8*, i8** %4, align 8, !tbaa !3
  store i8* %78, i8** %10, align 8, !tbaa !3
  %79 = bitcast i8** %11 to i8*
  call void @llvm.lifetime.start.p0i8(i64 8, i8* %79) #6
  %80 = load i8*, i8** %5, align 8, !tbaa !3
  store i8* %80, i8** %11, align 8, !tbaa !3
  %81 = load i8*, i8** %11, align 8, !tbaa !3
  %82 = getelementptr i8, i8* %81, i32 -1
  store i8* %82, i8** %11, align 8, !tbaa !3
  %83 = bitcast i32* %12 to i8*
  call void @llvm.lifetime.start.p0i8(i64 4, i8* %83) #6
  %84 = bitcast i64* %13 to i8*
  call void @llvm.lifetime.start.p0i8(i64 8, i8* %84) #6
  %85 = load i64, i64* %8, align 8, !tbaa !8
  %86 = icmp sge i64 %85, 1000
  br i1 %86, label %87, label %106

; <label>:87:                                     ; preds = %76
  %88 = load i64, i64* %8, align 8, !tbaa !8
  %89 = sdiv i64 %88, 2
  store i64 %89, i64* %13, align 8, !tbaa !8
  %90 = load i64, i64* %13, align 8, !tbaa !8
  %91 = load i8*, i8** %10, align 8, !tbaa !3
  %92 = getelementptr i8, i8* %91, i64 %90
  store i8* %92, i8** %10, align 8, !tbaa !3
  %93 = load i64, i64* %13, align 8, !tbaa !8
  %94 = sdiv i64 %93, 2
  store i64 %94, i64* %13, align 8, !tbaa !8
  %95 = load i8*, i8** %4, align 8, !tbaa !3
  %96 = load i8*, i8** %4, align 8, !tbaa !3
  %97 = load i64, i64* %13, align 8, !tbaa !8
  %98 = getelementptr i8, i8* %96, i64 %97
  %99 = load i8*, i8** %10, align 8, !tbaa !3
  %100 = load i8*, i8** %10, align 8, !tbaa !3
  %101 = load i64, i64* %13, align 8, !tbaa !8
  %102 = getelementptr i8, i8* %100, i64 %101
  %103 = load i8*, i8** %11, align 8, !tbaa !3
  %104 = load %"struct.std::__1::__less"*, %"struct.std::__1::__less"** %6, align 8
  %105 = call i32 @_ZNSt3__17__sort5IRNS_6__lessIaaEEPaEEjT0_S5_S5_S5_S5_T_(i8* %95, i8* %98, i8* %99, i8* %102, i8* %103, %"struct.std::__1::__less"* dereferenceable(1) %104)
  store i32 %105, i32* %12, align 4, !tbaa !10
  br label %117

; <label>:106:                                    ; preds = %76
  %107 = load i64, i64* %8, align 8, !tbaa !8
  %108 = sdiv i64 %107, 2
  store i64 %108, i64* %13, align 8, !tbaa !8
  %109 = load i64, i64* %13, align 8, !tbaa !8
  %110 = load i8*, i8** %10, align 8, !tbaa !3
  %111 = getelementptr i8, i8* %110, i64 %109
  store i8* %111, i8** %10, align 8, !tbaa !3
  %112 = load i8*, i8** %4, align 8, !tbaa !3
  %113 = load i8*, i8** %10, align 8, !tbaa !3
  %114 = load i8*, i8** %11, align 8, !tbaa !3
  %115 = load %"struct.std::__1::__less"*, %"struct.std::__1::__less"** %6, align 8
  %116 = call i32 @_ZNSt3__17__sort3IRNS_6__lessIaaEEPaEEjT0_S5_S5_T_(i8* %112, i8* %113, i8* %114, %"struct.std::__1::__less"* dereferenceable(1) %115)
  store i32 %116, i32* %12, align 4, !tbaa !10
  br label %117

; <label>:117:                                    ; preds = %106, %87
  %118 = bitcast i64* %13 to i8*
  call void @llvm.lifetime.end.p0i8(i64 8, i8* %118) #6
  %119 = bitcast i8** %14 to i8*
  call void @llvm.lifetime.start.p0i8(i64 8, i8* %119) #6
  %120 = load i8*, i8** %4, align 8, !tbaa !3
  store i8* %120, i8** %14, align 8, !tbaa !3
  %121 = bitcast i8** %15 to i8*
  call void @llvm.lifetime.start.p0i8(i64 8, i8* %121) #6
  %122 = load i8*, i8** %11, align 8, !tbaa !3
  store i8* %122, i8** %15, align 8, !tbaa !3
  %123 = load %"struct.std::__1::__less"*, %"struct.std::__1::__less"** %6, align 8
  %124 = load i8*, i8** %14, align 8, !tbaa !3
  %125 = load i8*, i8** %10, align 8, !tbaa !3
  %126 = call zeroext i1 @_ZNKSt3__16__lessIaaEclERKaS3_(%"struct.std::__1::__less"* %123, i8* dereferenceable(1) %124, i8* dereferenceable(1) %125)
  br i1 %126, label %217, label %127

; <label>:127:                                    ; preds = %117
  br label %128

; <label>:128:                                    ; preds = %215, %127
  br label %129

; <label>:129:                                    ; preds = %128
  %130 = load i8*, i8** %14, align 8, !tbaa !3
  %131 = load i8*, i8** %15, align 8, !tbaa !3
  %132 = getelementptr i8, i8* %131, i32 -1
  store i8* %132, i8** %15, align 8, !tbaa !3
  %133 = icmp eq i8* %130, %132
  br i1 %133, label %134, label %205

; <label>:134:                                    ; preds = %129
  %135 = load i8*, i8** %14, align 8, !tbaa !3
  %136 = getelementptr i8, i8* %135, i32 1
  store i8* %136, i8** %14, align 8, !tbaa !3
  %137 = load i8*, i8** %5, align 8, !tbaa !3
  store i8* %137, i8** %15, align 8, !tbaa !3
  %138 = load %"struct.std::__1::__less"*, %"struct.std::__1::__less"** %6, align 8
  %139 = load i8*, i8** %4, align 8, !tbaa !3
  %140 = load i8*, i8** %15, align 8, !tbaa !3
  %141 = getelementptr i8, i8* %140, i32 -1
  store i8* %141, i8** %15, align 8, !tbaa !3
  %142 = call zeroext i1 @_ZNKSt3__16__lessIaaEclERKaS3_(%"struct.std::__1::__less"* %138, i8* dereferenceable(1) %139, i8* dereferenceable(1) %141)
  br i1 %142, label %166, label %143

; <label>:143:                                    ; preds = %134
  br label %144

; <label>:144:                                    ; preds = %162, %143
  br label %145

; <label>:145:                                    ; preds = %144
  %146 = load i8*, i8** %14, align 8, !tbaa !3
  %147 = load i8*, i8** %15, align 8, !tbaa !3
  %148 = icmp eq i8* %146, %147
  br i1 %148, label %149, label %150

; <label>:149:                                    ; preds = %145
  store i32 1, i32* %9, align 4
  br label %332

; <label>:150:                                    ; preds = %145
  %151 = load %"struct.std::__1::__less"*, %"struct.std::__1::__less"** %6, align 8
  %152 = load i8*, i8** %4, align 8, !tbaa !3
  %153 = load i8*, i8** %14, align 8, !tbaa !3
  %154 = call zeroext i1 @_ZNKSt3__16__lessIaaEclERKaS3_(%"struct.std::__1::__less"* %151, i8* dereferenceable(1) %152, i8* dereferenceable(1) %153)
  br i1 %154, label %155, label %162

; <label>:155:                                    ; preds = %150
  %156 = load i8*, i8** %14, align 8, !tbaa !3
  %157 = load i8*, i8** %15, align 8, !tbaa !3
  call void @_ZNSt3__14swapIaEENS_9enable_ifIXaasr21is_move_constructibleIT_EE5valuesr18is_move_assignableIS2_EE5valueEvE4typeERS2_S5_(i8* dereferenceable(1) %156, i8* dereferenceable(1) %157) #6
  %158 = load i32, i32* %12, align 4, !tbaa !10
  %159 = add i32 %158, 1
  store i32 %159, i32* %12, align 4, !tbaa !10
  %160 = load i8*, i8** %14, align 8, !tbaa !3
  %161 = getelementptr i8, i8* %160, i32 1
  store i8* %161, i8** %14, align 8, !tbaa !3
  br label %165

; <label>:162:                                    ; preds = %150
  %163 = load i8*, i8** %14, align 8, !tbaa !3
  %164 = getelementptr i8, i8* %163, i32 1
  store i8* %164, i8** %14, align 8, !tbaa !3
  br label %144

; <label>:165:                                    ; preds = %155
  br label %166

; <label>:166:                                    ; preds = %165, %134
  %167 = load i8*, i8** %14, align 8, !tbaa !3
  %168 = load i8*, i8** %15, align 8, !tbaa !3
  %169 = icmp eq i8* %167, %168
  br i1 %169, label %170, label %171

; <label>:170:                                    ; preds = %166
  store i32 1, i32* %9, align 4
  br label %332

; <label>:171:                                    ; preds = %166
  br label %172

; <label>:172:                                    ; preds = %196, %171
  br label %173

; <label>:173:                                    ; preds = %172
  br label %174

; <label>:174:                                    ; preds = %180, %173
  %175 = load %"struct.std::__1::__less"*, %"struct.std::__1::__less"** %6, align 8
  %176 = load i8*, i8** %4, align 8, !tbaa !3
  %177 = load i8*, i8** %14, align 8, !tbaa !3
  %178 = call zeroext i1 @_ZNKSt3__16__lessIaaEclERKaS3_(%"struct.std::__1::__less"* %175, i8* dereferenceable(1) %176, i8* dereferenceable(1) %177)
  %179 = xor i1 %178, true
  br i1 %179, label %180, label %183

; <label>:180:                                    ; preds = %174
  %181 = load i8*, i8** %14, align 8, !tbaa !3
  %182 = getelementptr i8, i8* %181, i32 1
  store i8* %182, i8** %14, align 8, !tbaa !3
  br label %174

; <label>:183:                                    ; preds = %174
  br label %184

; <label>:184:                                    ; preds = %190, %183
  %185 = load %"struct.std::__1::__less"*, %"struct.std::__1::__less"** %6, align 8
  %186 = load i8*, i8** %4, align 8, !tbaa !3
  %187 = load i8*, i8** %15, align 8, !tbaa !3
  %188 = getelementptr i8, i8* %187, i32 -1
  store i8* %188, i8** %15, align 8, !tbaa !3
  %189 = call zeroext i1 @_ZNKSt3__16__lessIaaEclERKaS3_(%"struct.std::__1::__less"* %185, i8* dereferenceable(1) %186, i8* dereferenceable(1) %188)
  br i1 %189, label %190, label %191

; <label>:190:                                    ; preds = %184
  br label %184

; <label>:191:                                    ; preds = %184
  %192 = load i8*, i8** %14, align 8, !tbaa !3
  %193 = load i8*, i8** %15, align 8, !tbaa !3
  %194 = icmp uge i8* %192, %193
  br i1 %194, label %195, label %196

; <label>:195:                                    ; preds = %191
  br label %203

; <label>:196:                                    ; preds = %191
  %197 = load i8*, i8** %14, align 8, !tbaa !3
  %198 = load i8*, i8** %15, align 8, !tbaa !3
  call void @_ZNSt3__14swapIaEENS_9enable_ifIXaasr21is_move_constructibleIT_EE5valuesr18is_move_assignableIS2_EE5valueEvE4typeERS2_S5_(i8* dereferenceable(1) %197, i8* dereferenceable(1) %198) #6
  %199 = load i32, i32* %12, align 4, !tbaa !10
  %200 = add i32 %199, 1
  store i32 %200, i32* %12, align 4, !tbaa !10
  %201 = load i8*, i8** %14, align 8, !tbaa !3
  %202 = getelementptr i8, i8* %201, i32 1
  store i8* %202, i8** %14, align 8, !tbaa !3
  br label %172

; <label>:203:                                    ; preds = %195
  %204 = load i8*, i8** %14, align 8, !tbaa !3
  store i8* %204, i8** %4, align 8, !tbaa !3
  store i32 4, i32* %9, align 4
  br label %332

; <label>:205:                                    ; preds = %129
  %206 = load %"struct.std::__1::__less"*, %"struct.std::__1::__less"** %6, align 8
  %207 = load i8*, i8** %15, align 8, !tbaa !3
  %208 = load i8*, i8** %10, align 8, !tbaa !3
  %209 = call zeroext i1 @_ZNKSt3__16__lessIaaEclERKaS3_(%"struct.std::__1::__less"* %206, i8* dereferenceable(1) %207, i8* dereferenceable(1) %208)
  br i1 %209, label %210, label %215

; <label>:210:                                    ; preds = %205
  %211 = load i8*, i8** %14, align 8, !tbaa !3
  %212 = load i8*, i8** %15, align 8, !tbaa !3
  call void @_ZNSt3__14swapIaEENS_9enable_ifIXaasr21is_move_constructibleIT_EE5valuesr18is_move_assignableIS2_EE5valueEvE4typeERS2_S5_(i8* dereferenceable(1) %211, i8* dereferenceable(1) %212) #6
  %213 = load i32, i32* %12, align 4, !tbaa !10
  %214 = add i32 %213, 1
  store i32 %214, i32* %12, align 4, !tbaa !10
  br label %216

; <label>:215:                                    ; preds = %205
  br label %128

; <label>:216:                                    ; preds = %210
  br label %217

; <label>:217:                                    ; preds = %216, %117
  %218 = load i8*, i8** %14, align 8, !tbaa !3
  %219 = getelementptr i8, i8* %218, i32 1
  store i8* %219, i8** %14, align 8, !tbaa !3
  %220 = load i8*, i8** %14, align 8, !tbaa !3
  %221 = load i8*, i8** %15, align 8, !tbaa !3
  %222 = icmp ult i8* %220, %221
  br i1 %222, label %223, label %262

; <label>:223:                                    ; preds = %217
  br label %224

; <label>:224:                                    ; preds = %258, %223
  br label %225

; <label>:225:                                    ; preds = %224
  br label %226

; <label>:226:                                    ; preds = %231, %225
  %227 = load %"struct.std::__1::__less"*, %"struct.std::__1::__less"** %6, align 8
  %228 = load i8*, i8** %14, align 8, !tbaa !3
  %229 = load i8*, i8** %10, align 8, !tbaa !3
  %230 = call zeroext i1 @_ZNKSt3__16__lessIaaEclERKaS3_(%"struct.std::__1::__less"* %227, i8* dereferenceable(1) %228, i8* dereferenceable(1) %229)
  br i1 %230, label %231, label %234

; <label>:231:                                    ; preds = %226
  %232 = load i8*, i8** %14, align 8, !tbaa !3
  %233 = getelementptr i8, i8* %232, i32 1
  store i8* %233, i8** %14, align 8, !tbaa !3
  br label %226

; <label>:234:                                    ; preds = %226
  br label %235

; <label>:235:                                    ; preds = %242, %234
  %236 = load %"struct.std::__1::__less"*, %"struct.std::__1::__less"** %6, align 8
  %237 = load i8*, i8** %15, align 8, !tbaa !3
  %238 = getelementptr i8, i8* %237, i32 -1
  store i8* %238, i8** %15, align 8, !tbaa !3
  %239 = load i8*, i8** %10, align 8, !tbaa !3
  %240 = call zeroext i1 @_ZNKSt3__16__lessIaaEclERKaS3_(%"struct.std::__1::__less"* %236, i8* dereferenceable(1) %238, i8* dereferenceable(1) %239)
  %241 = xor i1 %240, true
  br i1 %241, label %242, label %243

; <label>:242:                                    ; preds = %235
  br label %235

; <label>:243:                                    ; preds = %235
  %244 = load i8*, i8** %14, align 8, !tbaa !3
  %245 = load i8*, i8** %15, align 8, !tbaa !3
  %246 = icmp ugt i8* %244, %245
  br i1 %246, label %247, label %248

; <label>:247:                                    ; preds = %243
  br label %261

; <label>:248:                                    ; preds = %243
  %249 = load i8*, i8** %14, align 8, !tbaa !3
  %250 = load i8*, i8** %15, align 8, !tbaa !3
  call void @_ZNSt3__14swapIaEENS_9enable_ifIXaasr21is_move_constructibleIT_EE5valuesr18is_move_assignableIS2_EE5valueEvE4typeERS2_S5_(i8* dereferenceable(1) %249, i8* dereferenceable(1) %250) #6
  %251 = load i32, i32* %12, align 4, !tbaa !10
  %252 = add i32 %251, 1
  store i32 %252, i32* %12, align 4, !tbaa !10
  %253 = load i8*, i8** %10, align 8, !tbaa !3
  %254 = load i8*, i8** %14, align 8, !tbaa !3
  %255 = icmp eq i8* %253, %254
  br i1 %255, label %256, label %258

; <label>:256:                                    ; preds = %248
  %257 = load i8*, i8** %15, align 8, !tbaa !3
  store i8* %257, i8** %10, align 8, !tbaa !3
  br label %258

; <label>:258:                                    ; preds = %256, %248
  %259 = load i8*, i8** %14, align 8, !tbaa !3
  %260 = getelementptr i8, i8* %259, i32 1
  store i8* %260, i8** %14, align 8, !tbaa !3
  br label %224

; <label>:261:                                    ; preds = %247
  br label %262

; <label>:262:                                    ; preds = %261, %217
  %263 = load i8*, i8** %14, align 8, !tbaa !3
  %264 = load i8*, i8** %10, align 8, !tbaa !3
  %265 = icmp ne i8* %263, %264
  br i1 %265, label %266, label %276

; <label>:266:                                    ; preds = %262
  %267 = load %"struct.std::__1::__less"*, %"struct.std::__1::__less"** %6, align 8
  %268 = load i8*, i8** %10, align 8, !tbaa !3
  %269 = load i8*, i8** %14, align 8, !tbaa !3
  %270 = call zeroext i1 @_ZNKSt3__16__lessIaaEclERKaS3_(%"struct.std::__1::__less"* %267, i8* dereferenceable(1) %268, i8* dereferenceable(1) %269)
  br i1 %270, label %271, label %276

; <label>:271:                                    ; preds = %266
  %272 = load i8*, i8** %14, align 8, !tbaa !3
  %273 = load i8*, i8** %10, align 8, !tbaa !3
  call void @_ZNSt3__14swapIaEENS_9enable_ifIXaasr21is_move_constructibleIT_EE5valuesr18is_move_assignableIS2_EE5valueEvE4typeERS2_S5_(i8* dereferenceable(1) %272, i8* dereferenceable(1) %273) #6
  %274 = load i32, i32* %12, align 4, !tbaa !10
  %275 = add i32 %274, 1
  store i32 %275, i32* %12, align 4, !tbaa !10
  br label %276

; <label>:276:                                    ; preds = %271, %266, %262
  %277 = load i32, i32* %12, align 4, !tbaa !10
  %278 = icmp eq i32 %277, 0
  br i1 %278, label %279, label %307

; <label>:279:                                    ; preds = %276
  call void @llvm.lifetime.start.p0i8(i64 1, i8* %16) #6
  %280 = load i8*, i8** %4, align 8, !tbaa !3
  %281 = load i8*, i8** %14, align 8, !tbaa !3
  %282 = load %"struct.std::__1::__less"*, %"struct.std::__1::__less"** %6, align 8
  %283 = call zeroext i1 @_ZNSt3__127__insertion_sort_incompleteIRNS_6__lessIaaEEPaEEbT0_S5_T_(i8* %280, i8* %281, %"struct.std::__1::__less"* dereferenceable(1) %282)
  %284 = zext i1 %283 to i8
  store i8 %284, i8* %16, align 1, !tbaa !12
  %285 = load i8*, i8** %14, align 8, !tbaa !3
  %286 = getelementptr i8, i8* %285, i64 1
  %287 = load i8*, i8** %5, align 8, !tbaa !3
  %288 = load %"struct.std::__1::__less"*, %"struct.std::__1::__less"** %6, align 8
  %289 = call zeroext i1 @_ZNSt3__127__insertion_sort_incompleteIRNS_6__lessIaaEEPaEEbT0_S5_T_(i8* %286, i8* %287, %"struct.std::__1::__less"* dereferenceable(1) %288)
  br i1 %289, label %290, label %296

; <label>:290:                                    ; preds = %279
  %291 = load i8, i8* %16, align 1, !tbaa !12, !range !14
  %292 = trunc i8 %291 to i1
  br i1 %292, label %293, label %294

; <label>:293:                                    ; preds = %290
  store i32 1, i32* %9, align 4
  br label %304

; <label>:294:                                    ; preds = %290
  %295 = load i8*, i8** %14, align 8, !tbaa !3
  store i8* %295, i8** %5, align 8, !tbaa !3
  store i32 2, i32* %9, align 4
  br label %304

; <label>:296:                                    ; preds = %279
  %297 = load i8, i8* %16, align 1, !tbaa !12, !range !14
  %298 = trunc i8 %297 to i1
  br i1 %298, label %299, label %302

; <label>:299:                                    ; preds = %296
  %300 = load i8*, i8** %14, align 8, !tbaa !3
  %301 = getelementptr i8, i8* %300, i32 1
  store i8* %301, i8** %14, align 8, !tbaa !3
  store i8* %301, i8** %4, align 8, !tbaa !3
  store i32 2, i32* %9, align 4
  br label %304

; <label>:302:                                    ; preds = %296
  br label %303

; <label>:303:                                    ; preds = %302
  store i32 0, i32* %9, align 4
  br label %304

; <label>:304:                                    ; preds = %303, %299, %294, %293
  call void @llvm.lifetime.end.p0i8(i64 1, i8* %16) #6
  %305 = load i32, i32* %9, align 4
  switch i32 %305, label %332 [
    i32 0, label %306
  ]

; <label>:306:                                    ; preds = %304
  br label %307

; <label>:307:                                    ; preds = %306, %276
  %308 = load i8*, i8** %14, align 8, !tbaa !3
  %309 = load i8*, i8** %4, align 8, !tbaa !3
  %310 = ptrtoint i8* %308 to i64
  %311 = ptrtoint i8* %309 to i64
  %312 = sub i64 %310, %311
  %313 = load i8*, i8** %5, align 8, !tbaa !3
  %314 = load i8*, i8** %14, align 8, !tbaa !3
  %315 = ptrtoint i8* %313 to i64
  %316 = ptrtoint i8* %314 to i64
  %317 = sub i64 %315, %316
  %318 = icmp slt i64 %312, %317
  br i1 %318, label %319, label %325

; <label>:319:                                    ; preds = %307
  %320 = load i8*, i8** %4, align 8, !tbaa !3
  %321 = load i8*, i8** %14, align 8, !tbaa !3
  %322 = load %"struct.std::__1::__less"*, %"struct.std::__1::__less"** %6, align 8
  call void @_ZNSt3__16__sortIRNS_6__lessIaaEEPaEEvT0_S5_T_(i8* %320, i8* %321, %"struct.std::__1::__less"* dereferenceable(1) %322)
  %323 = load i8*, i8** %14, align 8, !tbaa !3
  %324 = getelementptr i8, i8* %323, i32 1
  store i8* %324, i8** %14, align 8, !tbaa !3
  store i8* %324, i8** %4, align 8, !tbaa !3
  br label %331

; <label>:325:                                    ; preds = %307
  %326 = load i8*, i8** %14, align 8, !tbaa !3
  %327 = getelementptr i8, i8* %326, i64 1
  %328 = load i8*, i8** %5, align 8, !tbaa !3
  %329 = load %"struct.std::__1::__less"*, %"struct.std::__1::__less"** %6, align 8
  call void @_ZNSt3__16__sortIRNS_6__lessIaaEEPaEEvT0_S5_T_(i8* %327, i8* %328, %"struct.std::__1::__less"* dereferenceable(1) %329)
  %330 = load i8*, i8** %14, align 8, !tbaa !3
  store i8* %330, i8** %5, align 8, !tbaa !3
  br label %331

; <label>:331:                                    ; preds = %325, %319
  store i32 0, i32* %9, align 4
  br label %332

; <label>:332:                                    ; preds = %331, %304, %203, %170, %149
  %333 = bitcast i8** %15 to i8*
  call void @llvm.lifetime.end.p0i8(i64 8, i8* %333) #6
  %334 = bitcast i8** %14 to i8*
  call void @llvm.lifetime.end.p0i8(i64 8, i8* %334) #6
  %335 = bitcast i32* %12 to i8*
  call void @llvm.lifetime.end.p0i8(i64 4, i8* %335) #6
  %336 = bitcast i8** %11 to i8*
  call void @llvm.lifetime.end.p0i8(i64 8, i8* %336) #6
  %337 = bitcast i8** %10 to i8*
  call void @llvm.lifetime.end.p0i8(i64 8, i8* %337) #6
  br label %338

; <label>:338:                                    ; preds = %332, %72, %57, %47, %39, %38, %28
  %339 = bitcast i64* %8 to i8*
  call void @llvm.lifetime.end.p0i8(i64 8, i8* %339) #6
  %340 = load i32, i32* %9, align 4
  switch i32 %340, label %342 [
    i32 0, label %341
    i32 4, label %20
    i32 2, label %18
  ]

; <label>:341:                                    ; preds = %338
  br label %18

; <label>:342:                                    ; preds = %338
  %343 = bitcast i64* %7 to i8*
  call void @llvm.lifetime.end.p0i8(i64 8, i8* %343) #6
  ret void
}

; Function Attrs: alwaysinline nounwind sspstrong uwtable
define linkonce_odr hidden zeroext i1 @_ZNKSt3__16__lessIaaEclERKaS3_(%"struct.std::__1::__less"*, i8* dereferenceable(1), i8* dereferenceable(1)) #2 comdat align 2 {
  %4 = alloca %"struct.std::__1::__less"*, align 8
  %5 = alloca i8*, align 8
  %6 = alloca i8*, align 8
  store %"struct.std::__1::__less"* %0, %"struct.std::__1::__less"** %4, align 8, !tbaa !3
  store i8* %1, i8** %5, align 8, !tbaa !7
  store i8* %2, i8** %6, align 8, !tbaa !7
  %7 = load %"struct.std::__1::__less"*, %"struct.std::__1::__less"** %4, align 8
  %8 = load i8*, i8** %5, align 8
  %9 = load i8, i8* %8, align 1, !tbaa !7
  %10 = sext i8 %9 to i32
  %11 = load i8*, i8** %6, align 8
  %12 = load i8, i8* %11, align 1, !tbaa !7
  %13 = sext i8 %12 to i32
  %14 = icmp slt i32 %10, %13
  ret i1 %14
}

; Function Attrs: alwaysinline nounwind sspstrong uwtable
define linkonce_odr hidden void @_ZNSt3__14swapIaEENS_9enable_ifIXaasr21is_move_constructibleIT_EE5valuesr18is_move_assignableIS2_EE5valueEvE4typeERS2_S5_(i8* dereferenceable(1), i8* dereferenceable(1)) #2 comdat {
  %3 = alloca i8*, align 8
  %4 = alloca i8*, align 8
  %5 = alloca i8, align 1
  store i8* %0, i8** %3, align 8, !tbaa !7
  store i8* %1, i8** %4, align 8, !tbaa !7
  call void @llvm.lifetime.start.p0i8(i64 1, i8* %5) #6
  %6 = load i8*, i8** %3, align 8
  %7 = call dereferenceable(1) i8* @_ZNSt3__14moveIRaEEONS_16remove_referenceIT_E4typeEOS3_(i8* dereferenceable(1) %6) #6
  %8 = load i8, i8* %7, align 1, !tbaa !7
  store i8 %8, i8* %5, align 1, !tbaa !7
  %9 = load i8*, i8** %4, align 8
  %10 = call dereferenceable(1) i8* @_ZNSt3__14moveIRaEEONS_16remove_referenceIT_E4typeEOS3_(i8* dereferenceable(1) %9) #6
  %11 = load i8, i8* %10, align 1, !tbaa !7
  %12 = load i8*, i8** %3, align 8
  store i8 %11, i8* %12, align 1, !tbaa !7
  %13 = call dereferenceable(1) i8* @_ZNSt3__14moveIRaEEONS_16remove_referenceIT_E4typeEOS3_(i8* dereferenceable(1) %5) #6
  %14 = load i8, i8* %13, align 1, !tbaa !7
  %15 = load i8*, i8** %4, align 8
  store i8 %14, i8* %15, align 1, !tbaa !7
  call void @llvm.lifetime.end.p0i8(i64 1, i8* %5) #6
  ret void
}

; Function Attrs: nounwind sspstrong uwtable
define linkonce_odr i32 @_ZNSt3__17__sort3IRNS_6__lessIaaEEPaEEjT0_S5_S5_T_(i8*, i8*, i8*, %"struct.std::__1::__less"* dereferenceable(1)) #3 comdat {
  %5 = alloca i32, align 4
  %6 = alloca i8*, align 8
  %7 = alloca i8*, align 8
  %8 = alloca i8*, align 8
  %9 = alloca %"struct.std::__1::__less"*, align 8
  %10 = alloca i32, align 4
  %11 = alloca i32
  store i8* %0, i8** %6, align 8, !tbaa !3
  store i8* %1, i8** %7, align 8, !tbaa !3
  store i8* %2, i8** %8, align 8, !tbaa !3
  store %"struct.std::__1::__less"* %3, %"struct.std::__1::__less"** %9, align 8, !tbaa !7
  %12 = bitcast i32* %10 to i8*
  call void @llvm.lifetime.start.p0i8(i64 4, i8* %12) #6
  store i32 0, i32* %10, align 4, !tbaa !10
  %13 = load %"struct.std::__1::__less"*, %"struct.std::__1::__less"** %9, align 8
  %14 = load i8*, i8** %7, align 8, !tbaa !3
  %15 = load i8*, i8** %6, align 8, !tbaa !3
  %16 = call zeroext i1 @_ZNKSt3__16__lessIaaEclERKaS3_(%"struct.std::__1::__less"* %13, i8* dereferenceable(1) %14, i8* dereferenceable(1) %15)
  br i1 %16, label %36, label %17

; <label>:17:                                     ; preds = %4
  %18 = load %"struct.std::__1::__less"*, %"struct.std::__1::__less"** %9, align 8
  %19 = load i8*, i8** %8, align 8, !tbaa !3
  %20 = load i8*, i8** %7, align 8, !tbaa !3
  %21 = call zeroext i1 @_ZNKSt3__16__lessIaaEclERKaS3_(%"struct.std::__1::__less"* %18, i8* dereferenceable(1) %19, i8* dereferenceable(1) %20)
  br i1 %21, label %24, label %22

; <label>:22:                                     ; preds = %17
  %23 = load i32, i32* %10, align 4, !tbaa !10
  store i32 %23, i32* %5, align 4
  store i32 1, i32* %11, align 4
  br label %57

; <label>:24:                                     ; preds = %17
  %25 = load i8*, i8** %7, align 8, !tbaa !3
  %26 = load i8*, i8** %8, align 8, !tbaa !3
  call void @_ZNSt3__14swapIaEENS_9enable_ifIXaasr21is_move_constructibleIT_EE5valuesr18is_move_assignableIS2_EE5valueEvE4typeERS2_S5_(i8* dereferenceable(1) %25, i8* dereferenceable(1) %26) #6
  store i32 1, i32* %10, align 4, !tbaa !10
  %27 = load %"struct.std::__1::__less"*, %"struct.std::__1::__less"** %9, align 8
  %28 = load i8*, i8** %7, align 8, !tbaa !3
  %29 = load i8*, i8** %6, align 8, !tbaa !3
  %30 = call zeroext i1 @_ZNKSt3__16__lessIaaEclERKaS3_(%"struct.std::__1::__less"* %27, i8* dereferenceable(1) %28, i8* dereferenceable(1) %29)
  br i1 %30, label %31, label %34

; <label>:31:                                     ; preds = %24
  %32 = load i8*, i8** %6, align 8, !tbaa !3
  %33 = load i8*, i8** %7, align 8, !tbaa !3
  call void @_ZNSt3__14swapIaEENS_9enable_ifIXaasr21is_move_constructibleIT_EE5valuesr18is_move_assignableIS2_EE5valueEvE4typeERS2_S5_(i8* dereferenceable(1) %32, i8* dereferenceable(1) %33) #6
  store i32 2, i32* %10, align 4, !tbaa !10
  br label %34

; <label>:34:                                     ; preds = %31, %24
  %35 = load i32, i32* %10, align 4, !tbaa !10
  store i32 %35, i32* %5, align 4
  store i32 1, i32* %11, align 4
  br label %57

; <label>:36:                                     ; preds = %4
  %37 = load %"struct.std::__1::__less"*, %"struct.std::__1::__less"** %9, align 8
  %38 = load i8*, i8** %8, align 8, !tbaa !3
  %39 = load i8*, i8** %7, align 8, !tbaa !3
  %40 = call zeroext i1 @_ZNKSt3__16__lessIaaEclERKaS3_(%"struct.std::__1::__less"* %37, i8* dereferenceable(1) %38, i8* dereferenceable(1) %39)
  br i1 %40, label %41, label %45

; <label>:41:                                     ; preds = %36
  %42 = load i8*, i8** %6, align 8, !tbaa !3
  %43 = load i8*, i8** %8, align 8, !tbaa !3
  call void @_ZNSt3__14swapIaEENS_9enable_ifIXaasr21is_move_constructibleIT_EE5valuesr18is_move_assignableIS2_EE5valueEvE4typeERS2_S5_(i8* dereferenceable(1) %42, i8* dereferenceable(1) %43) #6
  store i32 1, i32* %10, align 4, !tbaa !10
  %44 = load i32, i32* %10, align 4, !tbaa !10
  store i32 %44, i32* %5, align 4
  store i32 1, i32* %11, align 4
  br label %57

; <label>:45:                                     ; preds = %36
  %46 = load i8*, i8** %6, align 8, !tbaa !3
  %47 = load i8*, i8** %7, align 8, !tbaa !3
  call void @_ZNSt3__14swapIaEENS_9enable_ifIXaasr21is_move_constructibleIT_EE5valuesr18is_move_assignableIS2_EE5valueEvE4typeERS2_S5_(i8* dereferenceable(1) %46, i8* dereferenceable(1) %47) #6
  store i32 1, i32* %10, align 4, !tbaa !10
  %48 = load %"struct.std::__1::__less"*, %"struct.std::__1::__less"** %9, align 8
  %49 = load i8*, i8** %8, align 8, !tbaa !3
  %50 = load i8*, i8** %7, align 8, !tbaa !3
  %51 = call zeroext i1 @_ZNKSt3__16__lessIaaEclERKaS3_(%"struct.std::__1::__less"* %48, i8* dereferenceable(1) %49, i8* dereferenceable(1) %50)
  br i1 %51, label %52, label %55

; <label>:52:                                     ; preds = %45
  %53 = load i8*, i8** %7, align 8, !tbaa !3
  %54 = load i8*, i8** %8, align 8, !tbaa !3
  call void @_ZNSt3__14swapIaEENS_9enable_ifIXaasr21is_move_constructibleIT_EE5valuesr18is_move_assignableIS2_EE5valueEvE4typeERS2_S5_(i8* dereferenceable(1) %53, i8* dereferenceable(1) %54) #6
  store i32 2, i32* %10, align 4, !tbaa !10
  br label %55

; <label>:55:                                     ; preds = %52, %45
  %56 = load i32, i32* %10, align 4, !tbaa !10
  store i32 %56, i32* %5, align 4
  store i32 1, i32* %11, align 4
  br label %57

; <label>:57:                                     ; preds = %55, %41, %34, %22
  %58 = bitcast i32* %10 to i8*
  call void @llvm.lifetime.end.p0i8(i64 4, i8* %58) #6
  %59 = load i32, i32* %5, align 4
  ret i32 %59
}

; Function Attrs: nounwind sspstrong uwtable
define linkonce_odr i32 @_ZNSt3__17__sort4IRNS_6__lessIaaEEPaEEjT0_S5_S5_S5_T_(i8*, i8*, i8*, i8*, %"struct.std::__1::__less"* dereferenceable(1)) #3 comdat {
  %6 = alloca i8*, align 8
  %7 = alloca i8*, align 8
  %8 = alloca i8*, align 8
  %9 = alloca i8*, align 8
  %10 = alloca %"struct.std::__1::__less"*, align 8
  %11 = alloca i32, align 4
  store i8* %0, i8** %6, align 8, !tbaa !3
  store i8* %1, i8** %7, align 8, !tbaa !3
  store i8* %2, i8** %8, align 8, !tbaa !3
  store i8* %3, i8** %9, align 8, !tbaa !3
  store %"struct.std::__1::__less"* %4, %"struct.std::__1::__less"** %10, align 8, !tbaa !7
  %12 = bitcast i32* %11 to i8*
  call void @llvm.lifetime.start.p0i8(i64 4, i8* %12) #6
  %13 = load i8*, i8** %6, align 8, !tbaa !3
  %14 = load i8*, i8** %7, align 8, !tbaa !3
  %15 = load i8*, i8** %8, align 8, !tbaa !3
  %16 = load %"struct.std::__1::__less"*, %"struct.std::__1::__less"** %10, align 8
  %17 = call i32 @_ZNSt3__17__sort3IRNS_6__lessIaaEEPaEEjT0_S5_S5_T_(i8* %13, i8* %14, i8* %15, %"struct.std::__1::__less"* dereferenceable(1) %16)
  store i32 %17, i32* %11, align 4, !tbaa !10
  %18 = load %"struct.std::__1::__less"*, %"struct.std::__1::__less"** %10, align 8
  %19 = load i8*, i8** %9, align 8, !tbaa !3
  %20 = load i8*, i8** %8, align 8, !tbaa !3
  %21 = call zeroext i1 @_ZNKSt3__16__lessIaaEclERKaS3_(%"struct.std::__1::__less"* %18, i8* dereferenceable(1) %19, i8* dereferenceable(1) %20)
  br i1 %21, label %22, label %47

; <label>:22:                                     ; preds = %5
  %23 = load i8*, i8** %8, align 8, !tbaa !3
  %24 = load i8*, i8** %9, align 8, !tbaa !3
  call void @_ZNSt3__14swapIaEENS_9enable_ifIXaasr21is_move_constructibleIT_EE5valuesr18is_move_assignableIS2_EE5valueEvE4typeERS2_S5_(i8* dereferenceable(1) %23, i8* dereferenceable(1) %24) #6
  %25 = load i32, i32* %11, align 4, !tbaa !10
  %26 = add i32 %25, 1
  store i32 %26, i32* %11, align 4, !tbaa !10
  %27 = load %"struct.std::__1::__less"*, %"struct.std::__1::__less"** %10, align 8
  %28 = load i8*, i8** %8, align 8, !tbaa !3
  %29 = load i8*, i8** %7, align 8, !tbaa !3
  %30 = call zeroext i1 @_ZNKSt3__16__lessIaaEclERKaS3_(%"struct.std::__1::__less"* %27, i8* dereferenceable(1) %28, i8* dereferenceable(1) %29)
  br i1 %30, label %31, label %46

; <label>:31:                                     ; preds = %22
  %32 = load i8*, i8** %7, align 8, !tbaa !3
  %33 = load i8*, i8** %8, align 8, !tbaa !3
  call void @_ZNSt3__14swapIaEENS_9enable_ifIXaasr21is_move_constructibleIT_EE5valuesr18is_move_assignableIS2_EE5valueEvE4typeERS2_S5_(i8* dereferenceable(1) %32, i8* dereferenceable(1) %33) #6
  %34 = load i32, i32* %11, align 4, !tbaa !10
  %35 = add i32 %34, 1
  store i32 %35, i32* %11, align 4, !tbaa !10
  %36 = load %"struct.std::__1::__less"*, %"struct.std::__1::__less"** %10, align 8
  %37 = load i8*, i8** %7, align 8, !tbaa !3
  %38 = load i8*, i8** %6, align 8, !tbaa !3
  %39 = call zeroext i1 @_ZNKSt3__16__lessIaaEclERKaS3_(%"struct.std::__1::__less"* %36, i8* dereferenceable(1) %37, i8* dereferenceable(1) %38)
  br i1 %39, label %40, label %45

; <label>:40:                                     ; preds = %31
  %41 = load i8*, i8** %6, align 8, !tbaa !3
  %42 = load i8*, i8** %7, align 8, !tbaa !3
  call void @_ZNSt3__14swapIaEENS_9enable_ifIXaasr21is_move_constructibleIT_EE5valuesr18is_move_assignableIS2_EE5valueEvE4typeERS2_S5_(i8* dereferenceable(1) %41, i8* dereferenceable(1) %42) #6
  %43 = load i32, i32* %11, align 4, !tbaa !10
  %44 = add i32 %43, 1
  store i32 %44, i32* %11, align 4, !tbaa !10
  br label %45

; <label>:45:                                     ; preds = %40, %31
  br label %46

; <label>:46:                                     ; preds = %45, %22
  br label %47

; <label>:47:                                     ; preds = %46, %5
  %48 = load i32, i32* %11, align 4, !tbaa !10
  %49 = bitcast i32* %11 to i8*
  call void @llvm.lifetime.end.p0i8(i64 4, i8* %49) #6
  ret i32 %48
}

; Function Attrs: nounwind sspstrong uwtable
define linkonce_odr i32 @_ZNSt3__17__sort5IRNS_6__lessIaaEEPaEEjT0_S5_S5_S5_S5_T_(i8*, i8*, i8*, i8*, i8*, %"struct.std::__1::__less"* dereferenceable(1)) #3 comdat {
  %7 = alloca i8*, align 8
  %8 = alloca i8*, align 8
  %9 = alloca i8*, align 8
  %10 = alloca i8*, align 8
  %11 = alloca i8*, align 8
  %12 = alloca %"struct.std::__1::__less"*, align 8
  %13 = alloca i32, align 4
  store i8* %0, i8** %7, align 8, !tbaa !3
  store i8* %1, i8** %8, align 8, !tbaa !3
  store i8* %2, i8** %9, align 8, !tbaa !3
  store i8* %3, i8** %10, align 8, !tbaa !3
  store i8* %4, i8** %11, align 8, !tbaa !3
  store %"struct.std::__1::__less"* %5, %"struct.std::__1::__less"** %12, align 8, !tbaa !7
  %14 = bitcast i32* %13 to i8*
  call void @llvm.lifetime.start.p0i8(i64 4, i8* %14) #6
  %15 = load i8*, i8** %7, align 8, !tbaa !3
  %16 = load i8*, i8** %8, align 8, !tbaa !3
  %17 = load i8*, i8** %9, align 8, !tbaa !3
  %18 = load i8*, i8** %10, align 8, !tbaa !3
  %19 = load %"struct.std::__1::__less"*, %"struct.std::__1::__less"** %12, align 8
  %20 = call i32 @_ZNSt3__17__sort4IRNS_6__lessIaaEEPaEEjT0_S5_S5_S5_T_(i8* %15, i8* %16, i8* %17, i8* %18, %"struct.std::__1::__less"* dereferenceable(1) %19)
  store i32 %20, i32* %13, align 4, !tbaa !10
  %21 = load %"struct.std::__1::__less"*, %"struct.std::__1::__less"** %12, align 8
  %22 = load i8*, i8** %11, align 8, !tbaa !3
  %23 = load i8*, i8** %10, align 8, !tbaa !3
  %24 = call zeroext i1 @_ZNKSt3__16__lessIaaEclERKaS3_(%"struct.std::__1::__less"* %21, i8* dereferenceable(1) %22, i8* dereferenceable(1) %23)
  br i1 %24, label %25, label %60

; <label>:25:                                     ; preds = %6
  %26 = load i8*, i8** %10, align 8, !tbaa !3
  %27 = load i8*, i8** %11, align 8, !tbaa !3
  call void @_ZNSt3__14swapIaEENS_9enable_ifIXaasr21is_move_constructibleIT_EE5valuesr18is_move_assignableIS2_EE5valueEvE4typeERS2_S5_(i8* dereferenceable(1) %26, i8* dereferenceable(1) %27) #6
  %28 = load i32, i32* %13, align 4, !tbaa !10
  %29 = add i32 %28, 1
  store i32 %29, i32* %13, align 4, !tbaa !10
  %30 = load %"struct.std::__1::__less"*, %"struct.std::__1::__less"** %12, align 8
  %31 = load i8*, i8** %10, align 8, !tbaa !3
  %32 = load i8*, i8** %9, align 8, !tbaa !3
  %33 = call zeroext i1 @_ZNKSt3__16__lessIaaEclERKaS3_(%"struct.std::__1::__less"* %30, i8* dereferenceable(1) %31, i8* dereferenceable(1) %32)
  br i1 %33, label %34, label %59

; <label>:34:                                     ; preds = %25
  %35 = load i8*, i8** %9, align 8, !tbaa !3
  %36 = load i8*, i8** %10, align 8, !tbaa !3
  call void @_ZNSt3__14swapIaEENS_9enable_ifIXaasr21is_move_constructibleIT_EE5valuesr18is_move_assignableIS2_EE5valueEvE4typeERS2_S5_(i8* dereferenceable(1) %35, i8* dereferenceable(1) %36) #6
  %37 = load i32, i32* %13, align 4, !tbaa !10
  %38 = add i32 %37, 1
  store i32 %38, i32* %13, align 4, !tbaa !10
  %39 = load %"struct.std::__1::__less"*, %"struct.std::__1::__less"** %12, align 8
  %40 = load i8*, i8** %9, align 8, !tbaa !3
  %41 = load i8*, i8** %8, align 8, !tbaa !3
  %42 = call zeroext i1 @_ZNKSt3__16__lessIaaEclERKaS3_(%"struct.std::__1::__less"* %39, i8* dereferenceable(1) %40, i8* dereferenceable(1) %41)
  br i1 %42, label %43, label %58

; <label>:43:                                     ; preds = %34
  %44 = load i8*, i8** %8, align 8, !tbaa !3
  %45 = load i8*, i8** %9, align 8, !tbaa !3
  call void @_ZNSt3__14swapIaEENS_9enable_ifIXaasr21is_move_constructibleIT_EE5valuesr18is_move_assignableIS2_EE5valueEvE4typeERS2_S5_(i8* dereferenceable(1) %44, i8* dereferenceable(1) %45) #6
  %46 = load i32, i32* %13, align 4, !tbaa !10
  %47 = add i32 %46, 1
  store i32 %47, i32* %13, align 4, !tbaa !10
  %48 = load %"struct.std::__1::__less"*, %"struct.std::__1::__less"** %12, align 8
  %49 = load i8*, i8** %8, align 8, !tbaa !3
  %50 = load i8*, i8** %7, align 8, !tbaa !3
  %51 = call zeroext i1 @_ZNKSt3__16__lessIaaEclERKaS3_(%"struct.std::__1::__less"* %48, i8* dereferenceable(1) %49, i8* dereferenceable(1) %50)
  br i1 %51, label %52, label %57

; <label>:52:                                     ; preds = %43
  %53 = load i8*, i8** %7, align 8, !tbaa !3
  %54 = load i8*, i8** %8, align 8, !tbaa !3
  call void @_ZNSt3__14swapIaEENS_9enable_ifIXaasr21is_move_constructibleIT_EE5valuesr18is_move_assignableIS2_EE5valueEvE4typeERS2_S5_(i8* dereferenceable(1) %53, i8* dereferenceable(1) %54) #6
  %55 = load i32, i32* %13, align 4, !tbaa !10
  %56 = add i32 %55, 1
  store i32 %56, i32* %13, align 4, !tbaa !10
  br label %57

; <label>:57:                                     ; preds = %52, %43
  br label %58

; <label>:58:                                     ; preds = %57, %34
  br label %59

; <label>:59:                                     ; preds = %58, %25
  br label %60

; <label>:60:                                     ; preds = %59, %6
  %61 = load i32, i32* %13, align 4, !tbaa !10
  %62 = bitcast i32* %13 to i8*
  call void @llvm.lifetime.end.p0i8(i64 4, i8* %62) #6
  ret i32 %61
}

; Function Attrs: nounwind sspstrong uwtable
define linkonce_odr void @_ZNSt3__118__insertion_sort_3IRNS_6__lessIaaEEPaEEvT0_S5_T_(i8*, i8*, %"struct.std::__1::__less"* dereferenceable(1)) #3 comdat {
  %4 = alloca i8*, align 8
  %5 = alloca i8*, align 8
  %6 = alloca %"struct.std::__1::__less"*, align 8
  %7 = alloca i8*, align 8
  %8 = alloca i8*, align 8
  %9 = alloca i8, align 1
  %10 = alloca i8*, align 8
  store i8* %0, i8** %4, align 8, !tbaa !3
  store i8* %1, i8** %5, align 8, !tbaa !3
  store %"struct.std::__1::__less"* %2, %"struct.std::__1::__less"** %6, align 8, !tbaa !7
  %11 = bitcast i8** %7 to i8*
  call void @llvm.lifetime.start.p0i8(i64 8, i8* %11) #6
  %12 = load i8*, i8** %4, align 8, !tbaa !3
  %13 = getelementptr i8, i8* %12, i64 2
  store i8* %13, i8** %7, align 8, !tbaa !3
  %14 = load i8*, i8** %4, align 8, !tbaa !3
  %15 = load i8*, i8** %4, align 8, !tbaa !3
  %16 = getelementptr i8, i8* %15, i64 1
  %17 = load i8*, i8** %7, align 8, !tbaa !3
  %18 = load %"struct.std::__1::__less"*, %"struct.std::__1::__less"** %6, align 8
  %19 = call i32 @_ZNSt3__17__sort3IRNS_6__lessIaaEEPaEEjT0_S5_S5_T_(i8* %14, i8* %16, i8* %17, %"struct.std::__1::__less"* dereferenceable(1) %18)
  %20 = bitcast i8** %8 to i8*
  call void @llvm.lifetime.start.p0i8(i64 8, i8* %20) #6
  %21 = load i8*, i8** %7, align 8, !tbaa !3
  %22 = getelementptr i8, i8* %21, i64 1
  store i8* %22, i8** %8, align 8, !tbaa !3
  br label %23

; <label>:23:                                     ; preds = %65, %3
  %24 = load i8*, i8** %8, align 8, !tbaa !3
  %25 = load i8*, i8** %5, align 8, !tbaa !3
  %26 = icmp ne i8* %24, %25
  br i1 %26, label %29, label %27

; <label>:27:                                     ; preds = %23
  %28 = bitcast i8** %8 to i8*
  call void @llvm.lifetime.end.p0i8(i64 8, i8* %28) #6
  br label %68

; <label>:29:                                     ; preds = %23
  %30 = load %"struct.std::__1::__less"*, %"struct.std::__1::__less"** %6, align 8
  %31 = load i8*, i8** %8, align 8, !tbaa !3
  %32 = load i8*, i8** %7, align 8, !tbaa !3
  %33 = call zeroext i1 @_ZNKSt3__16__lessIaaEclERKaS3_(%"struct.std::__1::__less"* %30, i8* dereferenceable(1) %31, i8* dereferenceable(1) %32)
  br i1 %33, label %34, label %63

; <label>:34:                                     ; preds = %29
  call void @llvm.lifetime.start.p0i8(i64 1, i8* %9) #6
  %35 = load i8*, i8** %8, align 8, !tbaa !3
  %36 = call dereferenceable(1) i8* @_ZNSt3__14moveIRaEEONS_16remove_referenceIT_E4typeEOS3_(i8* dereferenceable(1) %35) #6
  %37 = load i8, i8* %36, align 1, !tbaa !7
  store i8 %37, i8* %9, align 1, !tbaa !7
  %38 = bitcast i8** %10 to i8*
  call void @llvm.lifetime.start.p0i8(i64 8, i8* %38) #6
  %39 = load i8*, i8** %7, align 8, !tbaa !3
  store i8* %39, i8** %10, align 8, !tbaa !3
  %40 = load i8*, i8** %8, align 8, !tbaa !3
  store i8* %40, i8** %7, align 8, !tbaa !3
  br label %41

; <label>:41:                                     ; preds = %56, %34
  %42 = load i8*, i8** %10, align 8, !tbaa !3
  %43 = call dereferenceable(1) i8* @_ZNSt3__14moveIRaEEONS_16remove_referenceIT_E4typeEOS3_(i8* dereferenceable(1) %42) #6
  %44 = load i8, i8* %43, align 1, !tbaa !7
  %45 = load i8*, i8** %7, align 8, !tbaa !3
  store i8 %44, i8* %45, align 1, !tbaa !7
  %46 = load i8*, i8** %10, align 8, !tbaa !3
  store i8* %46, i8** %7, align 8, !tbaa !3
  br label %47

; <label>:47:                                     ; preds = %41
  %48 = load i8*, i8** %7, align 8, !tbaa !3
  %49 = load i8*, i8** %4, align 8, !tbaa !3
  %50 = icmp ne i8* %48, %49
  br i1 %50, label %51, label %56

; <label>:51:                                     ; preds = %47
  %52 = load %"struct.std::__1::__less"*, %"struct.std::__1::__less"** %6, align 8
  %53 = load i8*, i8** %10, align 8, !tbaa !3
  %54 = getelementptr i8, i8* %53, i32 -1
  store i8* %54, i8** %10, align 8, !tbaa !3
  %55 = call zeroext i1 @_ZNKSt3__16__lessIaaEclERKaS3_(%"struct.std::__1::__less"* %52, i8* dereferenceable(1) %9, i8* dereferenceable(1) %54)
  br label %56

; <label>:56:                                     ; preds = %51, %47
  %57 = phi i1 [ false, %47 ], [ %55, %51 ]
  br i1 %57, label %41, label %58

; <label>:58:                                     ; preds = %56
  %59 = call dereferenceable(1) i8* @_ZNSt3__14moveIRaEEONS_16remove_referenceIT_E4typeEOS3_(i8* dereferenceable(1) %9) #6
  %60 = load i8, i8* %59, align 1, !tbaa !7
  %61 = load i8*, i8** %7, align 8, !tbaa !3
  store i8 %60, i8* %61, align 1, !tbaa !7
  %62 = bitcast i8** %10 to i8*
  call void @llvm.lifetime.end.p0i8(i64 8, i8* %62) #6
  call void @llvm.lifetime.end.p0i8(i64 1, i8* %9) #6
  br label %63

; <label>:63:                                     ; preds = %58, %29
  %64 = load i8*, i8** %8, align 8, !tbaa !3
  store i8* %64, i8** %7, align 8, !tbaa !3
  br label %65

; <label>:65:                                     ; preds = %63
  %66 = load i8*, i8** %8, align 8, !tbaa !3
  %67 = getelementptr i8, i8* %66, i32 1
  store i8* %67, i8** %8, align 8, !tbaa !3
  br label %23

; <label>:68:                                     ; preds = %27
  %69 = bitcast i8** %7 to i8*
  call void @llvm.lifetime.end.p0i8(i64 8, i8* %69) #6
  ret void
}

; Function Attrs: sspstrong uwtable
define weak_odr zeroext i1 @_ZNSt3__127__insertion_sort_incompleteIRNS_6__lessIaaEEPaEEbT0_S5_T_(i8*, i8*, %"struct.std::__1::__less"* dereferenceable(1)) #0 comdat {
  %4 = alloca i1, align 1
  %5 = alloca i8*, align 8
  %6 = alloca i8*, align 8
  %7 = alloca %"struct.std::__1::__less"*, align 8
  %8 = alloca i8*, align 8
  %9 = alloca i32, align 4
  %10 = alloca i32, align 4
  %11 = alloca i8*, align 8
  %12 = alloca i32
  %13 = alloca i8, align 1
  %14 = alloca i8*, align 8
  store i8* %0, i8** %5, align 8, !tbaa !3
  store i8* %1, i8** %6, align 8, !tbaa !3
  store %"struct.std::__1::__less"* %2, %"struct.std::__1::__less"** %7, align 8, !tbaa !7
  %15 = load i8*, i8** %6, align 8, !tbaa !3
  %16 = load i8*, i8** %5, align 8, !tbaa !3
  %17 = ptrtoint i8* %15 to i64
  %18 = ptrtoint i8* %16 to i64
  %19 = sub i64 %17, %18
  switch i64 %19, label %61 [
    i64 0, label %20
    i64 1, label %20
    i64 2, label %21
    i64 3, label %31
    i64 4, label %39
    i64 5, label %49
  ]

; <label>:20:                                     ; preds = %3, %3
  store i1 true, i1* %4, align 1
  br label %140

; <label>:21:                                     ; preds = %3
  %22 = load %"struct.std::__1::__less"*, %"struct.std::__1::__less"** %7, align 8
  %23 = load i8*, i8** %6, align 8, !tbaa !3
  %24 = getelementptr i8, i8* %23, i32 -1
  store i8* %24, i8** %6, align 8, !tbaa !3
  %25 = load i8*, i8** %5, align 8, !tbaa !3
  %26 = call zeroext i1 @_ZNKSt3__16__lessIaaEclERKaS3_(%"struct.std::__1::__less"* %22, i8* dereferenceable(1) %24, i8* dereferenceable(1) %25)
  br i1 %26, label %27, label %30

; <label>:27:                                     ; preds = %21
  %28 = load i8*, i8** %5, align 8, !tbaa !3
  %29 = load i8*, i8** %6, align 8, !tbaa !3
  call void @_ZNSt3__14swapIaEENS_9enable_ifIXaasr21is_move_constructibleIT_EE5valuesr18is_move_assignableIS2_EE5valueEvE4typeERS2_S5_(i8* dereferenceable(1) %28, i8* dereferenceable(1) %29) #6
  br label %30

; <label>:30:                                     ; preds = %27, %21
  store i1 true, i1* %4, align 1
  br label %140

; <label>:31:                                     ; preds = %3
  %32 = load i8*, i8** %5, align 8, !tbaa !3
  %33 = load i8*, i8** %5, align 8, !tbaa !3
  %34 = getelementptr i8, i8* %33, i64 1
  %35 = load i8*, i8** %6, align 8, !tbaa !3
  %36 = getelementptr i8, i8* %35, i32 -1
  store i8* %36, i8** %6, align 8, !tbaa !3
  %37 = load %"struct.std::__1::__less"*, %"struct.std::__1::__less"** %7, align 8
  %38 = call i32 @_ZNSt3__17__sort3IRNS_6__lessIaaEEPaEEjT0_S5_S5_T_(i8* %32, i8* %34, i8* %36, %"struct.std::__1::__less"* dereferenceable(1) %37)
  store i1 true, i1* %4, align 1
  br label %140

; <label>:39:                                     ; preds = %3
  %40 = load i8*, i8** %5, align 8, !tbaa !3
  %41 = load i8*, i8** %5, align 8, !tbaa !3
  %42 = getelementptr i8, i8* %41, i64 1
  %43 = load i8*, i8** %5, align 8, !tbaa !3
  %44 = getelementptr i8, i8* %43, i64 2
  %45 = load i8*, i8** %6, align 8, !tbaa !3
  %46 = getelementptr i8, i8* %45, i32 -1
  store i8* %46, i8** %6, align 8, !tbaa !3
  %47 = load %"struct.std::__1::__less"*, %"struct.std::__1::__less"** %7, align 8
  %48 = call i32 @_ZNSt3__17__sort4IRNS_6__lessIaaEEPaEEjT0_S5_S5_S5_T_(i8* %40, i8* %42, i8* %44, i8* %46, %"struct.std::__1::__less"* dereferenceable(1) %47)
  store i1 true, i1* %4, align 1
  br label %140

; <label>:49:                                     ; preds = %3
  %50 = load i8*, i8** %5, align 8, !tbaa !3
  %51 = load i8*, i8** %5, align 8, !tbaa !3
  %52 = getelementptr i8, i8* %51, i64 1
  %53 = load i8*, i8** %5, align 8, !tbaa !3
  %54 = getelementptr i8, i8* %53, i64 2
  %55 = load i8*, i8** %5, align 8, !tbaa !3
  %56 = getelementptr i8, i8* %55, i64 3
  %57 = load i8*, i8** %6, align 8, !tbaa !3
  %58 = getelementptr i8, i8* %57, i32 -1
  store i8* %58, i8** %6, align 8, !tbaa !3
  %59 = load %"struct.std::__1::__less"*, %"struct.std::__1::__less"** %7, align 8
  %60 = call i32 @_ZNSt3__17__sort5IRNS_6__lessIaaEEPaEEjT0_S5_S5_S5_S5_T_(i8* %50, i8* %52, i8* %54, i8* %56, i8* %58, %"struct.std::__1::__less"* dereferenceable(1) %59)
  store i1 true, i1* %4, align 1
  br label %140

; <label>:61:                                     ; preds = %3
  %62 = bitcast i8** %8 to i8*
  call void @llvm.lifetime.start.p0i8(i64 8, i8* %62) #6
  %63 = load i8*, i8** %5, align 8, !tbaa !3
  %64 = getelementptr i8, i8* %63, i64 2
  store i8* %64, i8** %8, align 8, !tbaa !3
  %65 = load i8*, i8** %5, align 8, !tbaa !3
  %66 = load i8*, i8** %5, align 8, !tbaa !3
  %67 = getelementptr i8, i8* %66, i64 1
  %68 = load i8*, i8** %8, align 8, !tbaa !3
  %69 = load %"struct.std::__1::__less"*, %"struct.std::__1::__less"** %7, align 8
  %70 = call i32 @_ZNSt3__17__sort3IRNS_6__lessIaaEEPaEEjT0_S5_S5_T_(i8* %65, i8* %67, i8* %68, %"struct.std::__1::__less"* dereferenceable(1) %69)
  %71 = bitcast i32* %9 to i8*
  call void @llvm.lifetime.start.p0i8(i64 4, i8* %71) #6
  store i32 8, i32* %9, align 4, !tbaa !10
  %72 = bitcast i32* %10 to i8*
  call void @llvm.lifetime.start.p0i8(i64 4, i8* %72) #6
  store i32 0, i32* %10, align 4, !tbaa !10
  %73 = bitcast i8** %11 to i8*
  call void @llvm.lifetime.start.p0i8(i64 8, i8* %73) #6
  %74 = load i8*, i8** %8, align 8, !tbaa !3
  %75 = getelementptr i8, i8* %74, i64 1
  store i8* %75, i8** %11, align 8, !tbaa !3
  br label %76

; <label>:76:                                     ; preds = %129, %61
  %77 = load i8*, i8** %11, align 8, !tbaa !3
  %78 = load i8*, i8** %6, align 8, !tbaa !3
  %79 = icmp ne i8* %77, %78
  br i1 %79, label %81, label %80

; <label>:80:                                     ; preds = %76
  store i32 3, i32* %12, align 4
  br label %132

; <label>:81:                                     ; preds = %76
  %82 = load %"struct.std::__1::__less"*, %"struct.std::__1::__less"** %7, align 8
  %83 = load i8*, i8** %11, align 8, !tbaa !3
  %84 = load i8*, i8** %8, align 8, !tbaa !3
  %85 = call zeroext i1 @_ZNKSt3__16__lessIaaEclERKaS3_(%"struct.std::__1::__less"* %82, i8* dereferenceable(1) %83, i8* dereferenceable(1) %84)
  br i1 %85, label %86, label %127

; <label>:86:                                     ; preds = %81
  call void @llvm.lifetime.start.p0i8(i64 1, i8* %13) #6
  %87 = load i8*, i8** %11, align 8, !tbaa !3
  %88 = call dereferenceable(1) i8* @_ZNSt3__14moveIRaEEONS_16remove_referenceIT_E4typeEOS3_(i8* dereferenceable(1) %87) #6
  %89 = load i8, i8* %88, align 1, !tbaa !7
  store i8 %89, i8* %13, align 1, !tbaa !7
  %90 = bitcast i8** %14 to i8*
  call void @llvm.lifetime.start.p0i8(i64 8, i8* %90) #6
  %91 = load i8*, i8** %8, align 8, !tbaa !3
  store i8* %91, i8** %14, align 8, !tbaa !3
  %92 = load i8*, i8** %11, align 8, !tbaa !3
  store i8* %92, i8** %8, align 8, !tbaa !3
  br label %93

; <label>:93:                                     ; preds = %108, %86
  %94 = load i8*, i8** %14, align 8, !tbaa !3
  %95 = call dereferenceable(1) i8* @_ZNSt3__14moveIRaEEONS_16remove_referenceIT_E4typeEOS3_(i8* dereferenceable(1) %94) #6
  %96 = load i8, i8* %95, align 1, !tbaa !7
  %97 = load i8*, i8** %8, align 8, !tbaa !3
  store i8 %96, i8* %97, align 1, !tbaa !7
  %98 = load i8*, i8** %14, align 8, !tbaa !3
  store i8* %98, i8** %8, align 8, !tbaa !3
  br label %99

; <label>:99:                                     ; preds = %93
  %100 = load i8*, i8** %8, align 8, !tbaa !3
  %101 = load i8*, i8** %5, align 8, !tbaa !3
  %102 = icmp ne i8* %100, %101
  br i1 %102, label %103, label %108

; <label>:103:                                    ; preds = %99
  %104 = load %"struct.std::__1::__less"*, %"struct.std::__1::__less"** %7, align 8
  %105 = load i8*, i8** %14, align 8, !tbaa !3
  %106 = getelementptr i8, i8* %105, i32 -1
  store i8* %106, i8** %14, align 8, !tbaa !3
  %107 = call zeroext i1 @_ZNKSt3__16__lessIaaEclERKaS3_(%"struct.std::__1::__less"* %104, i8* dereferenceable(1) %13, i8* dereferenceable(1) %106)
  br label %108

; <label>:108:                                    ; preds = %103, %99
  %109 = phi i1 [ false, %99 ], [ %107, %103 ]
  br i1 %109, label %93, label %110

; <label>:110:                                    ; preds = %108
  %111 = call dereferenceable(1) i8* @_ZNSt3__14moveIRaEEONS_16remove_referenceIT_E4typeEOS3_(i8* dereferenceable(1) %13) #6
  %112 = load i8, i8* %111, align 1, !tbaa !7
  %113 = load i8*, i8** %8, align 8, !tbaa !3
  store i8 %112, i8* %113, align 1, !tbaa !7
  %114 = load i32, i32* %10, align 4, !tbaa !10
  %115 = add i32 %114, 1
  store i32 %115, i32* %10, align 4, !tbaa !10
  %116 = icmp eq i32 %115, 8
  br i1 %116, label %117, label %122

; <label>:117:                                    ; preds = %110
  %118 = load i8*, i8** %11, align 8, !tbaa !3
  %119 = getelementptr i8, i8* %118, i32 1
  store i8* %119, i8** %11, align 8, !tbaa !3
  %120 = load i8*, i8** %6, align 8, !tbaa !3
  %121 = icmp eq i8* %119, %120
  store i1 %121, i1* %4, align 1
  store i32 1, i32* %12, align 4
  br label %123

; <label>:122:                                    ; preds = %110
  store i32 0, i32* %12, align 4
  br label %123

; <label>:123:                                    ; preds = %122, %117
  %124 = bitcast i8** %14 to i8*
  call void @llvm.lifetime.end.p0i8(i64 8, i8* %124) #6
  call void @llvm.lifetime.end.p0i8(i64 1, i8* %13) #6
  %125 = load i32, i32* %12, align 4
  switch i32 %125, label %132 [
    i32 0, label %126
  ]

; <label>:126:                                    ; preds = %123
  br label %127

; <label>:127:                                    ; preds = %126, %81
  %128 = load i8*, i8** %11, align 8, !tbaa !3
  store i8* %128, i8** %8, align 8, !tbaa !3
  br label %129

; <label>:129:                                    ; preds = %127
  %130 = load i8*, i8** %11, align 8, !tbaa !3
  %131 = getelementptr i8, i8* %130, i32 1
  store i8* %131, i8** %11, align 8, !tbaa !3
  br label %76

; <label>:132:                                    ; preds = %123, %80
  %133 = bitcast i8** %11 to i8*
  call void @llvm.lifetime.end.p0i8(i64 8, i8* %133) #6
  %134 = load i32, i32* %12, align 4
  switch i32 %134, label %136 [
    i32 3, label %135
  ]

; <label>:135:                                    ; preds = %132
  store i1 true, i1* %4, align 1
  store i32 1, i32* %12, align 4
  br label %136

; <label>:136:                                    ; preds = %135, %132
  %137 = bitcast i32* %10 to i8*
  call void @llvm.lifetime.end.p0i8(i64 4, i8* %137) #6
  %138 = bitcast i32* %9 to i8*
  call void @llvm.lifetime.end.p0i8(i64 4, i8* %138) #6
  %139 = bitcast i8** %8 to i8*
  call void @llvm.lifetime.end.p0i8(i64 8, i8* %139) #6
  br label %140

; <label>:140:                                    ; preds = %136, %49, %39, %31, %30, %20
  %141 = load i1, i1* %4, align 1
  ret i1 %141
}

; Function Attrs: alwaysinline nounwind sspstrong uwtable
define linkonce_odr hidden dereferenceable(1) i8* @_ZNSt3__14moveIRaEEONS_16remove_referenceIT_E4typeEOS3_(i8* dereferenceable(1)) #2 comdat {
  %2 = alloca i8*, align 8
  store i8* %0, i8** %2, align 8, !tbaa !7
  %3 = load i8*, i8** %2, align 8
  ret i8* %3
}

; Function Attrs: sspstrong uwtable
define weak_odr void @_ZNSt3__16__sortIRNS_6__lessIhhEEPhEEvT0_S5_T_(i8*, i8*, %"struct.std::__1::__less"* dereferenceable(1)) #0 comdat {
  %4 = alloca i8*, align 8
  %5 = alloca i8*, align 8
  %6 = alloca %"struct.std::__1::__less"*, align 8
  %7 = alloca i64, align 8
  %8 = alloca i64, align 8
  %9 = alloca i32
  %10 = alloca i8*, align 8
  %11 = alloca i8*, align 8
  %12 = alloca i32, align 4
  %13 = alloca i64, align 8
  %14 = alloca i8*, align 8
  %15 = alloca i8*, align 8
  %16 = alloca i8, align 1
  store i8* %0, i8** %4, align 8, !tbaa !3
  store i8* %1, i8** %5, align 8, !tbaa !3
  store %"struct.std::__1::__less"* %2, %"struct.std::__1::__less"** %6, align 8, !tbaa !7
  %17 = bitcast i64* %7 to i8*
  call void @llvm.lifetime.start.p0i8(i64 8, i8* %17) #6
  store i64 30, i64* %7, align 8, !tbaa !8
  br label %18

; <label>:18:                                     ; preds = %341, %338, %3
  br label %19

; <label>:19:                                     ; preds = %18
  br label %20

; <label>:20:                                     ; preds = %338, %19
  %21 = bitcast i64* %8 to i8*
  call void @llvm.lifetime.start.p0i8(i64 8, i8* %21) #6
  %22 = load i8*, i8** %5, align 8, !tbaa !3
  %23 = load i8*, i8** %4, align 8, !tbaa !3
  %24 = ptrtoint i8* %22 to i64
  %25 = ptrtoint i8* %23 to i64
  %26 = sub i64 %24, %25
  store i64 %26, i64* %8, align 8, !tbaa !8
  %27 = load i64, i64* %8, align 8, !tbaa !8
  switch i64 %27, label %69 [
    i64 0, label %28
    i64 1, label %28
    i64 2, label %29
    i64 3, label %39
    i64 4, label %47
    i64 5, label %57
  ]

; <label>:28:                                     ; preds = %20, %20
  store i32 1, i32* %9, align 4
  br label %338

; <label>:29:                                     ; preds = %20
  %30 = load %"struct.std::__1::__less"*, %"struct.std::__1::__less"** %6, align 8
  %31 = load i8*, i8** %5, align 8, !tbaa !3
  %32 = getelementptr i8, i8* %31, i32 -1
  store i8* %32, i8** %5, align 8, !tbaa !3
  %33 = load i8*, i8** %4, align 8, !tbaa !3
  %34 = call zeroext i1 @_ZNKSt3__16__lessIhhEclERKhS3_(%"struct.std::__1::__less"* %30, i8* dereferenceable(1) %32, i8* dereferenceable(1) %33)
  br i1 %34, label %35, label %38

; <label>:35:                                     ; preds = %29
  %36 = load i8*, i8** %4, align 8, !tbaa !3
  %37 = load i8*, i8** %5, align 8, !tbaa !3
  call void @_ZNSt3__14swapIhEENS_9enable_ifIXaasr21is_move_constructibleIT_EE5valuesr18is_move_assignableIS2_EE5valueEvE4typeERS2_S5_(i8* dereferenceable(1) %36, i8* dereferenceable(1) %37) #6
  br label %38

; <label>:38:                                     ; preds = %35, %29
  store i32 1, i32* %9, align 4
  br label %338

; <label>:39:                                     ; preds = %20
  %40 = load i8*, i8** %4, align 8, !tbaa !3
  %41 = load i8*, i8** %4, align 8, !tbaa !3
  %42 = getelementptr i8, i8* %41, i64 1
  %43 = load i8*, i8** %5, align 8, !tbaa !3
  %44 = getelementptr i8, i8* %43, i32 -1
  store i8* %44, i8** %5, align 8, !tbaa !3
  %45 = load %"struct.std::__1::__less"*, %"struct.std::__1::__less"** %6, align 8
  %46 = call i32 @_ZNSt3__17__sort3IRNS_6__lessIhhEEPhEEjT0_S5_S5_T_(i8* %40, i8* %42, i8* %44, %"struct.std::__1::__less"* dereferenceable(1) %45)
  store i32 1, i32* %9, align 4
  br label %338

; <label>:47:                                     ; preds = %20
  %48 = load i8*, i8** %4, align 8, !tbaa !3
  %49 = load i8*, i8** %4, align 8, !tbaa !3
  %50 = getelementptr i8, i8* %49, i64 1
  %51 = load i8*, i8** %4, align 8, !tbaa !3
  %52 = getelementptr i8, i8* %51, i64 2
  %53 = load i8*, i8** %5, align 8, !tbaa !3
  %54 = getelementptr i8, i8* %53, i32 -1
  store i8* %54, i8** %5, align 8, !tbaa !3
  %55 = load %"struct.std::__1::__less"*, %"struct.std::__1::__less"** %6, align 8
  %56 = call i32 @_ZNSt3__17__sort4IRNS_6__lessIhhEEPhEEjT0_S5_S5_S5_T_(i8* %48, i8* %50, i8* %52, i8* %54, %"struct.std::__1::__less"* dereferenceable(1) %55)
  store i32 1, i32* %9, align 4
  br label %338

; <label>:57:                                     ; preds = %20
  %58 = load i8*, i8** %4, align 8, !tbaa !3
  %59 = load i8*, i8** %4, align 8, !tbaa !3
  %60 = getelementptr i8, i8* %59, i64 1
  %61 = load i8*, i8** %4, align 8, !tbaa !3
  %62 = getelementptr i8, i8* %61, i64 2
  %63 = load i8*, i8** %4, align 8, !tbaa !3
  %64 = getelementptr i8, i8* %63, i64 3
  %65 = load i8*, i8** %5, align 8, !tbaa !3
  %66 = getelementptr i8, i8* %65, i32 -1
  store i8* %66, i8** %5, align 8, !tbaa !3
  %67 = load %"struct.std::__1::__less"*, %"struct.std::__1::__less"** %6, align 8
  %68 = call i32 @_ZNSt3__17__sort5IRNS_6__lessIhhEEPhEEjT0_S5_S5_S5_S5_T_(i8* %58, i8* %60, i8* %62, i8* %64, i8* %66, %"struct.std::__1::__less"* dereferenceable(1) %67)
  store i32 1, i32* %9, align 4
  br label %338

; <label>:69:                                     ; preds = %20
  %70 = load i64, i64* %8, align 8, !tbaa !8
  %71 = icmp sle i64 %70, 30
  br i1 %71, label %72, label %76

; <label>:72:                                     ; preds = %69
  %73 = load i8*, i8** %4, align 8, !tbaa !3
  %74 = load i8*, i8** %5, align 8, !tbaa !3
  %75 = load %"struct.std::__1::__less"*, %"struct.std::__1::__less"** %6, align 8
  call void @_ZNSt3__118__insertion_sort_3IRNS_6__lessIhhEEPhEEvT0_S5_T_(i8* %73, i8* %74, %"struct.std::__1::__less"* dereferenceable(1) %75)
  store i32 1, i32* %9, align 4
  br label %338

; <label>:76:                                     ; preds = %69
  %77 = bitcast i8** %10 to i8*
  call void @llvm.lifetime.start.p0i8(i64 8, i8* %77) #6
  %78 = load i8*, i8** %4, align 8, !tbaa !3
  store i8* %78, i8** %10, align 8, !tbaa !3
  %79 = bitcast i8** %11 to i8*
  call void @llvm.lifetime.start.p0i8(i64 8, i8* %79) #6
  %80 = load i8*, i8** %5, align 8, !tbaa !3
  store i8* %80, i8** %11, align 8, !tbaa !3
  %81 = load i8*, i8** %11, align 8, !tbaa !3
  %82 = getelementptr i8, i8* %81, i32 -1
  store i8* %82, i8** %11, align 8, !tbaa !3
  %83 = bitcast i32* %12 to i8*
  call void @llvm.lifetime.start.p0i8(i64 4, i8* %83) #6
  %84 = bitcast i64* %13 to i8*
  call void @llvm.lifetime.start.p0i8(i64 8, i8* %84) #6
  %85 = load i64, i64* %8, align 8, !tbaa !8
  %86 = icmp sge i64 %85, 1000
  br i1 %86, label %87, label %106

; <label>:87:                                     ; preds = %76
  %88 = load i64, i64* %8, align 8, !tbaa !8
  %89 = sdiv i64 %88, 2
  store i64 %89, i64* %13, align 8, !tbaa !8
  %90 = load i64, i64* %13, align 8, !tbaa !8
  %91 = load i8*, i8** %10, align 8, !tbaa !3
  %92 = getelementptr i8, i8* %91, i64 %90
  store i8* %92, i8** %10, align 8, !tbaa !3
  %93 = load i64, i64* %13, align 8, !tbaa !8
  %94 = sdiv i64 %93, 2
  store i64 %94, i64* %13, align 8, !tbaa !8
  %95 = load i8*, i8** %4, align 8, !tbaa !3
  %96 = load i8*, i8** %4, align 8, !tbaa !3
  %97 = load i64, i64* %13, align 8, !tbaa !8
  %98 = getelementptr i8, i8* %96, i64 %97
  %99 = load i8*, i8** %10, align 8, !tbaa !3
  %100 = load i8*, i8** %10, align 8, !tbaa !3
  %101 = load i64, i64* %13, align 8, !tbaa !8
  %102 = getelementptr i8, i8* %100, i64 %101
  %103 = load i8*, i8** %11, align 8, !tbaa !3
  %104 = load %"struct.std::__1::__less"*, %"struct.std::__1::__less"** %6, align 8
  %105 = call i32 @_ZNSt3__17__sort5IRNS_6__lessIhhEEPhEEjT0_S5_S5_S5_S5_T_(i8* %95, i8* %98, i8* %99, i8* %102, i8* %103, %"struct.std::__1::__less"* dereferenceable(1) %104)
  store i32 %105, i32* %12, align 4, !tbaa !10
  br label %117

; <label>:106:                                    ; preds = %76
  %107 = load i64, i64* %8, align 8, !tbaa !8
  %108 = sdiv i64 %107, 2
  store i64 %108, i64* %13, align 8, !tbaa !8
  %109 = load i64, i64* %13, align 8, !tbaa !8
  %110 = load i8*, i8** %10, align 8, !tbaa !3
  %111 = getelementptr i8, i8* %110, i64 %109
  store i8* %111, i8** %10, align 8, !tbaa !3
  %112 = load i8*, i8** %4, align 8, !tbaa !3
  %113 = load i8*, i8** %10, align 8, !tbaa !3
  %114 = load i8*, i8** %11, align 8, !tbaa !3
  %115 = load %"struct.std::__1::__less"*, %"struct.std::__1::__less"** %6, align 8
  %116 = call i32 @_ZNSt3__17__sort3IRNS_6__lessIhhEEPhEEjT0_S5_S5_T_(i8* %112, i8* %113, i8* %114, %"struct.std::__1::__less"* dereferenceable(1) %115)
  store i32 %116, i32* %12, align 4, !tbaa !10
  br label %117

; <label>:117:                                    ; preds = %106, %87
  %118 = bitcast i64* %13 to i8*
  call void @llvm.lifetime.end.p0i8(i64 8, i8* %118) #6
  %119 = bitcast i8** %14 to i8*
  call void @llvm.lifetime.start.p0i8(i64 8, i8* %119) #6
  %120 = load i8*, i8** %4, align 8, !tbaa !3
  store i8* %120, i8** %14, align 8, !tbaa !3
  %121 = bitcast i8** %15 to i8*
  call void @llvm.lifetime.start.p0i8(i64 8, i8* %121) #6
  %122 = load i8*, i8** %11, align 8, !tbaa !3
  store i8* %122, i8** %15, align 8, !tbaa !3
  %123 = load %"struct.std::__1::__less"*, %"struct.std::__1::__less"** %6, align 8
  %124 = load i8*, i8** %14, align 8, !tbaa !3
  %125 = load i8*, i8** %10, align 8, !tbaa !3
  %126 = call zeroext i1 @_ZNKSt3__16__lessIhhEclERKhS3_(%"struct.std::__1::__less"* %123, i8* dereferenceable(1) %124, i8* dereferenceable(1) %125)
  br i1 %126, label %217, label %127

; <label>:127:                                    ; preds = %117
  br label %128

; <label>:128:                                    ; preds = %215, %127
  br label %129

; <label>:129:                                    ; preds = %128
  %130 = load i8*, i8** %14, align 8, !tbaa !3
  %131 = load i8*, i8** %15, align 8, !tbaa !3
  %132 = getelementptr i8, i8* %131, i32 -1
  store i8* %132, i8** %15, align 8, !tbaa !3
  %133 = icmp eq i8* %130, %132
  br i1 %133, label %134, label %205

; <label>:134:                                    ; preds = %129
  %135 = load i8*, i8** %14, align 8, !tbaa !3
  %136 = getelementptr i8, i8* %135, i32 1
  store i8* %136, i8** %14, align 8, !tbaa !3
  %137 = load i8*, i8** %5, align 8, !tbaa !3
  store i8* %137, i8** %15, align 8, !tbaa !3
  %138 = load %"struct.std::__1::__less"*, %"struct.std::__1::__less"** %6, align 8
  %139 = load i8*, i8** %4, align 8, !tbaa !3
  %140 = load i8*, i8** %15, align 8, !tbaa !3
  %141 = getelementptr i8, i8* %140, i32 -1
  store i8* %141, i8** %15, align 8, !tbaa !3
  %142 = call zeroext i1 @_ZNKSt3__16__lessIhhEclERKhS3_(%"struct.std::__1::__less"* %138, i8* dereferenceable(1) %139, i8* dereferenceable(1) %141)
  br i1 %142, label %166, label %143

; <label>:143:                                    ; preds = %134
  br label %144

; <label>:144:                                    ; preds = %162, %143
  br label %145

; <label>:145:                                    ; preds = %144
  %146 = load i8*, i8** %14, align 8, !tbaa !3
  %147 = load i8*, i8** %15, align 8, !tbaa !3
  %148 = icmp eq i8* %146, %147
  br i1 %148, label %149, label %150

; <label>:149:                                    ; preds = %145
  store i32 1, i32* %9, align 4
  br label %332

; <label>:150:                                    ; preds = %145
  %151 = load %"struct.std::__1::__less"*, %"struct.std::__1::__less"** %6, align 8
  %152 = load i8*, i8** %4, align 8, !tbaa !3
  %153 = load i8*, i8** %14, align 8, !tbaa !3
  %154 = call zeroext i1 @_ZNKSt3__16__lessIhhEclERKhS3_(%"struct.std::__1::__less"* %151, i8* dereferenceable(1) %152, i8* dereferenceable(1) %153)
  br i1 %154, label %155, label %162

; <label>:155:                                    ; preds = %150
  %156 = load i8*, i8** %14, align 8, !tbaa !3
  %157 = load i8*, i8** %15, align 8, !tbaa !3
  call void @_ZNSt3__14swapIhEENS_9enable_ifIXaasr21is_move_constructibleIT_EE5valuesr18is_move_assignableIS2_EE5valueEvE4typeERS2_S5_(i8* dereferenceable(1) %156, i8* dereferenceable(1) %157) #6
  %158 = load i32, i32* %12, align 4, !tbaa !10
  %159 = add i32 %158, 1
  store i32 %159, i32* %12, align 4, !tbaa !10
  %160 = load i8*, i8** %14, align 8, !tbaa !3
  %161 = getelementptr i8, i8* %160, i32 1
  store i8* %161, i8** %14, align 8, !tbaa !3
  br label %165

; <label>:162:                                    ; preds = %150
  %163 = load i8*, i8** %14, align 8, !tbaa !3
  %164 = getelementptr i8, i8* %163, i32 1
  store i8* %164, i8** %14, align 8, !tbaa !3
  br label %144

; <label>:165:                                    ; preds = %155
  br label %166

; <label>:166:                                    ; preds = %165, %134
  %167 = load i8*, i8** %14, align 8, !tbaa !3
  %168 = load i8*, i8** %15, align 8, !tbaa !3
  %169 = icmp eq i8* %167, %168
  br i1 %169, label %170, label %171

; <label>:170:                                    ; preds = %166
  store i32 1, i32* %9, align 4
  br label %332

; <label>:171:                                    ; preds = %166
  br label %172

; <label>:172:                                    ; preds = %196, %171
  br label %173

; <label>:173:                                    ; preds = %172
  br label %174

; <label>:174:                                    ; preds = %180, %173
  %175 = load %"struct.std::__1::__less"*, %"struct.std::__1::__less"** %6, align 8
  %176 = load i8*, i8** %4, align 8, !tbaa !3
  %177 = load i8*, i8** %14, align 8, !tbaa !3
  %178 = call zeroext i1 @_ZNKSt3__16__lessIhhEclERKhS3_(%"struct.std::__1::__less"* %175, i8* dereferenceable(1) %176, i8* dereferenceable(1) %177)
  %179 = xor i1 %178, true
  br i1 %179, label %180, label %183

; <label>:180:                                    ; preds = %174
  %181 = load i8*, i8** %14, align 8, !tbaa !3
  %182 = getelementptr i8, i8* %181, i32 1
  store i8* %182, i8** %14, align 8, !tbaa !3
  br label %174

; <label>:183:                                    ; preds = %174
  br label %184

; <label>:184:                                    ; preds = %190, %183
  %185 = load %"struct.std::__1::__less"*, %"struct.std::__1::__less"** %6, align 8
  %186 = load i8*, i8** %4, align 8, !tbaa !3
  %187 = load i8*, i8** %15, align 8, !tbaa !3
  %188 = getelementptr i8, i8* %187, i32 -1
  store i8* %188, i8** %15, align 8, !tbaa !3
  %189 = call zeroext i1 @_ZNKSt3__16__lessIhhEclERKhS3_(%"struct.std::__1::__less"* %185, i8* dereferenceable(1) %186, i8* dereferenceable(1) %188)
  br i1 %189, label %190, label %191

; <label>:190:                                    ; preds = %184
  br label %184

; <label>:191:                                    ; preds = %184
  %192 = load i8*, i8** %14, align 8, !tbaa !3
  %193 = load i8*, i8** %15, align 8, !tbaa !3
  %194 = icmp uge i8* %192, %193
  br i1 %194, label %195, label %196

; <label>:195:                                    ; preds = %191
  br label %203

; <label>:196:                                    ; preds = %191
  %197 = load i8*, i8** %14, align 8, !tbaa !3
  %198 = load i8*, i8** %15, align 8, !tbaa !3
  call void @_ZNSt3__14swapIhEENS_9enable_ifIXaasr21is_move_constructibleIT_EE5valuesr18is_move_assignableIS2_EE5valueEvE4typeERS2_S5_(i8* dereferenceable(1) %197, i8* dereferenceable(1) %198) #6
  %199 = load i32, i32* %12, align 4, !tbaa !10
  %200 = add i32 %199, 1
  store i32 %200, i32* %12, align 4, !tbaa !10
  %201 = load i8*, i8** %14, align 8, !tbaa !3
  %202 = getelementptr i8, i8* %201, i32 1
  store i8* %202, i8** %14, align 8, !tbaa !3
  br label %172

; <label>:203:                                    ; preds = %195
  %204 = load i8*, i8** %14, align 8, !tbaa !3
  store i8* %204, i8** %4, align 8, !tbaa !3
  store i32 4, i32* %9, align 4
  br label %332

; <label>:205:                                    ; preds = %129
  %206 = load %"struct.std::__1::__less"*, %"struct.std::__1::__less"** %6, align 8
  %207 = load i8*, i8** %15, align 8, !tbaa !3
  %208 = load i8*, i8** %10, align 8, !tbaa !3
  %209 = call zeroext i1 @_ZNKSt3__16__lessIhhEclERKhS3_(%"struct.std::__1::__less"* %206, i8* dereferenceable(1) %207, i8* dereferenceable(1) %208)
  br i1 %209, label %210, label %215

; <label>:210:                                    ; preds = %205
  %211 = load i8*, i8** %14, align 8, !tbaa !3
  %212 = load i8*, i8** %15, align 8, !tbaa !3
  call void @_ZNSt3__14swapIhEENS_9enable_ifIXaasr21is_move_constructibleIT_EE5valuesr18is_move_assignableIS2_EE5valueEvE4typeERS2_S5_(i8* dereferenceable(1) %211, i8* dereferenceable(1) %212) #6
  %213 = load i32, i32* %12, align 4, !tbaa !10
  %214 = add i32 %213, 1
  store i32 %214, i32* %12, align 4, !tbaa !10
  br label %216

; <label>:215:                                    ; preds = %205
  br label %128

; <label>:216:                                    ; preds = %210
  br label %217

; <label>:217:                                    ; preds = %216, %117
  %218 = load i8*, i8** %14, align 8, !tbaa !3
  %219 = getelementptr i8, i8* %218, i32 1
  store i8* %219, i8** %14, align 8, !tbaa !3
  %220 = load i8*, i8** %14, align 8, !tbaa !3
  %221 = load i8*, i8** %15, align 8, !tbaa !3
  %222 = icmp ult i8* %220, %221
  br i1 %222, label %223, label %262

; <label>:223:                                    ; preds = %217
  br label %224

; <label>:224:                                    ; preds = %258, %223
  br label %225

; <label>:225:                                    ; preds = %224
  br label %226

; <label>:226:                                    ; preds = %231, %225
  %227 = load %"struct.std::__1::__less"*, %"struct.std::__1::__less"** %6, align 8
  %228 = load i8*, i8** %14, align 8, !tbaa !3
  %229 = load i8*, i8** %10, align 8, !tbaa !3
  %230 = call zeroext i1 @_ZNKSt3__16__lessIhhEclERKhS3_(%"struct.std::__1::__less"* %227, i8* dereferenceable(1) %228, i8* dereferenceable(1) %229)
  br i1 %230, label %231, label %234

; <label>:231:                                    ; preds = %226
  %232 = load i8*, i8** %14, align 8, !tbaa !3
  %233 = getelementptr i8, i8* %232, i32 1
  store i8* %233, i8** %14, align 8, !tbaa !3
  br label %226

; <label>:234:                                    ; preds = %226
  br label %235

; <label>:235:                                    ; preds = %242, %234
