; ModuleID = 'iostream.bc'
source_filename = "iostream.cpp"
target datalayout = "e-m:e-i64:64-f80:128-n8:16:32:64-S128"
target triple = "x86_64-unknown-linux-gnu"

%"class.std::ios_base::Init" = type { i8 }
%"class.std::basic_ostream" = type { i32 (...)**, %"class.std::basic_ios" }
%"class.std::basic_ios" = type { %"class.std::ios_base", %"class.std::basic_ostream"*, i8, i8, %"class.std::basic_streambuf"*, %"class.std::ctype"*, %"class.std::num_put"*, %"class.std::num_get"* }
%"class.std::ios_base" = type { i32 (...)**, i64, i64, i32, i32, i32, %"struct.std::ios_base::_Callback_list"*, %"struct.std::ios_base::_Words", [8 x %"struct.std::ios_base::_Words"], i32, %"struct.std::ios_base::_Words"*, %"class.std::locale" }
%"struct.std::ios_base::_Callback_list" = type { %"struct.std::ios_base::_Callback_list"*, void (i32, %"class.std::ios_base"*, i32)*, i32, i32 }
%"struct.std::ios_base::_Words" = type { i8*, i64 }
%"class.std::locale" = type { %"class.std::locale::_Impl"* }
%"class.std::locale::_Impl" = type { i32, %"class.std::locale::facet"**, i64, %"class.std::locale::facet"**, i8** }
%"class.std::locale::facet" = type <{ i32 (...)**, i32, [4 x i8] }>
%"class.std::basic_streambuf" = type { i32 (...)**, i8*, i8*, i8*, i8*, i8*, i8*, %"class.std::locale" }
%"class.std::ctype" = type <{ %"class.std::locale::facet.base", [4 x i8], %struct.__locale_struct*, i8, [7 x i8], i32*, i32*, i16*, i8, [256 x i8], [256 x i8], i8, [6 x i8] }>
%"class.std::locale::facet.base" = type <{ i32 (...)**, i32 }>
%struct.__locale_struct = type { [13 x %struct.__locale_data*], i16*, i32*, i32*, [13 x i8*] }
%struct.__locale_data = type opaque
%"class.std::num_put" = type { %"class.std::locale::facet.base", [4 x i8] }
%"class.std::num_get" = type { %"class.std::locale::facet.base", [4 x i8] }

@_ZStL8__ioinit = internal global %"class.std::ios_base::Init" zeroinitializer, align 1, !dbg !0
@__dso_handle = external hidden global i8
@_ZSt4cout = external global %"class.std::basic_ostream", align 8
@.str = private unnamed_addr constant [13 x i8] c"Hello world!\00", align 1
@llvm.global_ctors = appending global [1 x { i32, void ()*, i8* }] [{ i32, void ()*, i8* } { i32 65535, void ()* @_GLOBAL__sub_I_iostream.cpp, i8* null }]

declare void @_ZNSt8ios_base4InitC1Ev(%"class.std::ios_base::Init"*) unnamed_addr #0

; Function Attrs: nounwind
declare void @_ZNSt8ios_base4InitD1Ev(%"class.std::ios_base::Init"*) unnamed_addr #1

; Function Attrs: nounwind
declare i32 @__cxa_atexit(void (i8*)*, i8*, i8*) local_unnamed_addr #2

; Function Attrs: norecurse sspstrong uwtable
define i32 @main() local_unnamed_addr #3 !dbg !975 {
  call void @llvm.dbg.value(metadata %"class.std::basic_ostream"* @_ZSt4cout, metadata !977, metadata !DIExpression()), !dbg !1041
  call void @llvm.dbg.value(metadata i8* getelementptr inbounds ([13 x i8], [13 x i8]* @.str, i64 0, i64 0), metadata !986, metadata !DIExpression()), !dbg !1043
  %1 = tail call dereferenceable(272) %"class.std::basic_ostream"* @_ZSt16__ostream_insertIcSt11char_traitsIcEERSt13basic_ostreamIT_T0_ES6_PKS3_l(%"class.std::basic_ostream"* nonnull dereferenceable(272) @_ZSt4cout, i8* nonnull getelementptr inbounds ([13 x i8], [13 x i8]* @.str, i64 0, i64 0), i64 12), !dbg !1044
  ret i32 0, !dbg !1046
}

declare dereferenceable(272) %"class.std::basic_ostream"* @_ZSt16__ostream_insertIcSt11char_traitsIcEERSt13basic_ostreamIT_T0_ES6_PKS3_l(%"class.std::basic_ostream"* dereferenceable(272), i8*, i64) local_unnamed_addr #0

; Function Attrs: sspstrong uwtable
define internal void @_GLOBAL__sub_I_iostream.cpp() #4 section ".text.startup" !dbg !1047 {
  tail call void @_ZNSt8ios_base4InitC1Ev(%"class.std::ios_base::Init"* nonnull @_ZStL8__ioinit), !dbg !1049
  %1 = tail call i32 @__cxa_atexit(void (i8*)* bitcast (void (%"class.std::ios_base::Init"*)* @_ZNSt8ios_base4InitD1Ev to void (i8*)*), i8* getelementptr inbounds (%"class.std::ios_base::Init", %"class.std::ios_base::Init"* @_ZStL8__ioinit, i64 0, i32 0), i8* nonnull @__dso_handle) #2, !dbg !1049
  ret void
}

; Function Attrs: nounwind readnone speculatable
declare void @llvm.dbg.value(metadata, metadata, metadata) #5

attributes #0 = { "correctly-rounded-divide-sqrt-fp-math"="false" "disable-tail-calls"="false" "less-precise-fpmad"="false" "no-frame-pointer-elim"="false" "no-infs-fp-math"="false" "no-nans-fp-math"="false" "no-signed-zeros-fp-math"="false" "no-trapping-math"="false" "stack-protector-buffer-size"="4" "target-cpu"="x86-64" "target-features"="+fxsr,+mmx,+sse,+sse2,+x87" "unsafe-fp-math"="false" "use-soft-float"="false" }
attributes #1 = { nounwind "correctly-rounded-divide-sqrt-fp-math"="false" "disable-tail-calls"="false" "less-precise-fpmad"="false" "no-frame-pointer-elim"="false" "no-infs-fp-math"="false" "no-nans-fp-math"="false" "no-signed-zeros-fp-math"="false" "no-trapping-math"="false" "stack-protector-buffer-size"="4" "target-cpu"="x86-64" "target-features"="+fxsr,+mmx,+sse,+sse2,+x87" "unsafe-fp-math"="false" "use-soft-float"="false" }
attributes #2 = { nounwind }
attributes #3 = { norecurse sspstrong uwtable "correctly-rounded-divide-sqrt-fp-math"="false" "disable-tail-calls"="false" "less-precise-fpmad"="false" "no-frame-pointer-elim"="false" "no-infs-fp-math"="false" "no-jump-tables"="false" "no-nans-fp-math"="false" "no-signed-zeros-fp-math"="false" "no-trapping-math"="false" "stack-protector-buffer-size"="4" "target-cpu"="x86-64" "target-features"="+fxsr,+mmx,+sse,+sse2,+x87" "unsafe-fp-math"="false" "use-soft-float"="false" }
attributes #4 = { sspstrong uwtable "correctly-rounded-divide-sqrt-fp-math"="false" "disable-tail-calls"="false" "less-precise-fpmad"="false" "no-frame-pointer-elim"="false" "no-infs-fp-math"="false" "no-jump-tables"="false" "no-nans-fp-math"="false" "no-signed-zeros-fp-math"="false" "no-trapping-math"="false" "stack-protector-buffer-size"="4" "target-cpu"="x86-64" "target-features"="+fxsr,+mmx,+sse,+sse2,+x87" "unsafe-fp-math"="false" "use-soft-float"="false" }
attributes #5 = { nounwind readnone speculatable }

!llvm.dbg.cu = !{!19}
!llvm.module.flags = !{!970, !971, !972, !973}
!llvm.ident = !{!974}

!0 = !DIGlobalVariableExpression(var: !1, expr: !DIExpression())
!1 = distinct !DIGlobalVariable(name: "__ioinit", linkageName: "_ZStL8__ioinit", scope: !2, file: !3, line: 74, type: !4, isLocal: true, isDefinition: true)
!2 = !DINamespace(name: "std", scope: null)
!3 = !DIFile(filename: "/nix/store/czxcii58v6d3yhrq9r667zw91192rcgk-gcc-7.3.0/include/c++/7.3.0/iostream", directory: "/home/siddharthist/code/llvm-pretty-bc-parser/disasm-test/cpp")
!4 = distinct !DICompositeType(tag: DW_TAG_class_type, name: "Init", scope: !6, file: !5, line: 601, size: 8, elements: !7, identifier: "_ZTSNSt8ios_base4InitE")
!5 = !DIFile(filename: "/nix/store/czxcii58v6d3yhrq9r667zw91192rcgk-gcc-7.3.0/include/c++/7.3.0/bits/ios_base.h", directory: "/home/siddharthist/code/llvm-pretty-bc-parser/disasm-test/cpp")
!6 = !DICompositeType(tag: DW_TAG_class_type, name: "ios_base", scope: !2, file: !5, line: 228, flags: DIFlagFwdDecl, identifier: "_ZTSSt8ios_base")
!7 = !{!8, !12, !14, !18}
!8 = !DIDerivedType(tag: DW_TAG_member, name: "_S_refcount", scope: !4, file: !5, line: 609, baseType: !9, flags: DIFlagStaticMember)
!9 = !DIDerivedType(tag: DW_TAG_typedef, name: "_Atomic_word", file: !10, line: 32, baseType: !11)
!10 = !DIFile(filename: "/nix/store/czxcii58v6d3yhrq9r667zw91192rcgk-gcc-7.3.0/include/c++/7.3.0/x86_64-unknown-linux-gnu/bits/atomic_word.h", directory: "/home/siddharthist/code/llvm-pretty-bc-parser/disasm-test/cpp")
!11 = !DIBasicType(name: "int", size: 32, encoding: DW_ATE_signed)
!12 = !DIDerivedType(tag: DW_TAG_member, name: "_S_synced_with_stdio", scope: !4, file: !5, line: 610, baseType: !13, flags: DIFlagStaticMember)
!13 = !DIBasicType(name: "bool", size: 8, encoding: DW_ATE_boolean)
!14 = !DISubprogram(name: "Init", scope: !4, file: !5, line: 605, type: !15, isLocal: false, isDefinition: false, scopeLine: 605, flags: DIFlagPublic | DIFlagPrototyped, isOptimized: true)
!15 = !DISubroutineType(types: !16)
!16 = !{null, !17}
!17 = !DIDerivedType(tag: DW_TAG_pointer_type, baseType: !4, size: 64, flags: DIFlagArtificial | DIFlagObjectPointer)
!18 = !DISubprogram(name: "~Init", scope: !4, file: !5, line: 606, type: !15, isLocal: false, isDefinition: false, scopeLine: 606, flags: DIFlagPublic | DIFlagPrototyped, isOptimized: true)
!19 = distinct !DICompileUnit(language: DW_LANG_C_plus_plus, file: !20, producer: "clang version 6.0.1 (tags/RELEASE_601/final)", isOptimized: true, runtimeVersion: 0, emissionKind: FullDebug, enums: !21, retainedTypes: !31, globals: !37, imports: !38)
!20 = !DIFile(filename: "iostream.cpp", directory: "/home/siddharthist/code/llvm-pretty-bc-parser/disasm-test/cpp")
!21 = !{!22}
!22 = !DICompositeType(tag: DW_TAG_enumeration_type, name: "_Ios_Iostate", scope: !2, file: !5, line: 153, size: 32, elements: !23, identifier: "_ZTSSt12_Ios_Iostate")
!23 = !{!24, !25, !26, !27, !28, !29, !30}
!24 = !DIEnumerator(name: "_S_goodbit", value: 0)
!25 = !DIEnumerator(name: "_S_badbit", value: 1)
!26 = !DIEnumerator(name: "_S_eofbit", value: 2)
!27 = !DIEnumerator(name: "_S_failbit", value: 4)
!28 = !DIEnumerator(name: "_S_ios_iostate_end", value: 65536)
!29 = !DIEnumerator(name: "_S_ios_iostate_max", value: 2147483647)
!30 = !DIEnumerator(name: "_S_ios_iostate_min", value: -2147483648)
!31 = !{!32, !22, !11, !6}
!32 = !DIDerivedType(tag: DW_TAG_typedef, name: "streamsize", scope: !2, file: !33, line: 98, baseType: !34)
!33 = !DIFile(filename: "/nix/store/czxcii58v6d3yhrq9r667zw91192rcgk-gcc-7.3.0/include/c++/7.3.0/bits/postypes.h", directory: "/home/siddharthist/code/llvm-pretty-bc-parser/disasm-test/cpp")
!34 = !DIDerivedType(tag: DW_TAG_typedef, name: "ptrdiff_t", scope: !2, file: !35, line: 232, baseType: !36)
!35 = !DIFile(filename: "/nix/store/czxcii58v6d3yhrq9r667zw91192rcgk-gcc-7.3.0/include/c++/7.3.0/x86_64-unknown-linux-gnu/bits/c++config.h", directory: "/home/siddharthist/code/llvm-pretty-bc-parser/disasm-test/cpp")
!36 = !DIBasicType(name: "long int", size: 64, encoding: DW_ATE_signed)
!37 = !{!0}
!38 = !{!39, !58, !61, !66, !126, !135, !139, !146, !150, !154, !156, !158, !162, !171, !175, !181, !187, !189, !193, !197, !201, !205, !216, !218, !222, !226, !230, !232, !237, !241, !245, !247, !249, !253, !261, !265, !269, !273, !275, !281, !283, !290, !295, !299, !303, !307, !311, !315, !317, !319, !323, !327, !331, !333, !337, !341, !343, !345, !349, !355, !360, !365, !366, !367, !368, !369, !370, !371, !372, !373, !374, !375, !429, !433, !437, !442, !446, !449, !452, !455, !457, !459, !461, !463, !465, !467, !469, !472, !474, !479, !482, !485, !488, !490, !492, !494, !496, !498, !500, !502, !504, !507, !509, !513, !517, !522, !528, !530, !532, !534, !536, !538, !540, !542, !544, !546, !548, !550, !552, !554, !557, !558, !562, !566, !572, !576, !581, !583, !588, !592, !596, !607, !611, !615, !619, !623, !627, !631, !635, !639, !643, !648, !652, !656, !658, !662, !666, !670, !676, !680, !684, !686, !690, !694, !700, !702, !706, !710, !714, !718, !722, !726, !730, !731, !732, !733, !735, !736, !737, !738, !739, !740, !741, !745, !751, !756, !760, !762, !764, !766, !768, !775, !780, !784, !788, !792, !796, !801, !805, !807, !811, !817, !821, !826, !828, !831, !835, !839, !841, !843, !845, !847, !851, !853, !855, !859, !863, !867, !871, !875, !879, !881, !885, !889, !893, !897, !899, !901, !905, !909, !910, !911, !912, !913, !914, !920, !923, !924, !926, !928, !930, !932, !936, !938, !940, !942, !944, !946, !948, !950, !952, !956, !960, !962, !966}
!39 = !DIImportedEntity(tag: DW_TAG_imported_declaration, scope: !2, entity: !40, file: !57, line: 64)
!40 = !DIDerivedType(tag: DW_TAG_typedef, name: "mbstate_t", file: !41, line: 6, baseType: !42)
!41 = !DIFile(filename: "/nix/store/8hagj3k5q9vkyxnrl8431r4kpn4gf46l-glibc-2.26-131-dev/include/bits/types/mbstate_t.h", directory: "/home/siddharthist/code/llvm-pretty-bc-parser/disasm-test/cpp")
!42 = !DIDerivedType(tag: DW_TAG_typedef, name: "__mbstate_t", file: !43, line: 21, baseType: !44)
!43 = !DIFile(filename: "/nix/store/8hagj3k5q9vkyxnrl8431r4kpn4gf46l-glibc-2.26-131-dev/include/bits/types/__mbstate_t.h", directory: "/home/siddharthist/code/llvm-pretty-bc-parser/disasm-test/cpp")
!44 = distinct !DICompositeType(tag: DW_TAG_structure_type, file: !43, line: 13, size: 64, elements: !45, identifier: "_ZTS11__mbstate_t")
!45 = !{!46, !47}
!46 = !DIDerivedType(tag: DW_TAG_member, name: "__count", scope: !44, file: !43, line: 15, baseType: !11, size: 32)
!47 = !DIDerivedType(tag: DW_TAG_member, name: "__value", scope: !44, file: !43, line: 20, baseType: !48, size: 32, offset: 32)
!48 = distinct !DICompositeType(tag: DW_TAG_union_type, scope: !44, file: !43, line: 16, size: 32, elements: !49, identifier: "_ZTSN11__mbstate_tUt_E")
!49 = !{!50, !52}
!50 = !DIDerivedType(tag: DW_TAG_member, name: "__wch", scope: !48, file: !43, line: 18, baseType: !51, size: 32)
!51 = !DIBasicType(name: "unsigned int", size: 32, encoding: DW_ATE_unsigned)
!52 = !DIDerivedType(tag: DW_TAG_member, name: "__wchb", scope: !48, file: !43, line: 19, baseType: !53, size: 32)
!53 = !DICompositeType(tag: DW_TAG_array_type, baseType: !54, size: 32, elements: !55)
!54 = !DIBasicType(name: "char", size: 8, encoding: DW_ATE_signed_char)
!55 = !{!56}
!56 = !DISubrange(count: 4)
!57 = !DIFile(filename: "/nix/store/czxcii58v6d3yhrq9r667zw91192rcgk-gcc-7.3.0/include/c++/7.3.0/cwchar", directory: "/home/siddharthist/code/llvm-pretty-bc-parser/disasm-test/cpp")
!58 = !DIImportedEntity(tag: DW_TAG_imported_declaration, scope: !2, entity: !59, file: !57, line: 139)
!59 = !DIDerivedType(tag: DW_TAG_typedef, name: "wint_t", file: !60, line: 20, baseType: !51)
!60 = !DIFile(filename: "/nix/store/8hagj3k5q9vkyxnrl8431r4kpn4gf46l-glibc-2.26-131-dev/include/bits/types/wint_t.h", directory: "/home/siddharthist/code/llvm-pretty-bc-parser/disasm-test/cpp")
!61 = !DIImportedEntity(tag: DW_TAG_imported_declaration, scope: !2, entity: !62, file: !57, line: 141)
!62 = !DISubprogram(name: "btowc", scope: !63, file: !63, line: 318, type: !64, isLocal: false, isDefinition: false, flags: DIFlagPrototyped, isOptimized: true)
!63 = !DIFile(filename: "/nix/store/8hagj3k5q9vkyxnrl8431r4kpn4gf46l-glibc-2.26-131-dev/include/wchar.h", directory: "/home/siddharthist/code/llvm-pretty-bc-parser/disasm-test/cpp")
!64 = !DISubroutineType(types: !65)
!65 = !{!59, !11}
!66 = !DIImportedEntity(tag: DW_TAG_imported_declaration, scope: !2, entity: !67, file: !57, line: 142)
!67 = !DISubprogram(name: "fgetwc", scope: !63, file: !63, line: 660, type: !68, isLocal: false, isDefinition: false, flags: DIFlagPrototyped, isOptimized: true)
!68 = !DISubroutineType(types: !69)
!69 = !{!59, !70}
!70 = !DIDerivedType(tag: DW_TAG_pointer_type, baseType: !71, size: 64)
!71 = !DIDerivedType(tag: DW_TAG_typedef, name: "__FILE", file: !72, line: 5, baseType: !73)
!72 = !DIFile(filename: "/nix/store/8hagj3k5q9vkyxnrl8431r4kpn4gf46l-glibc-2.26-131-dev/include/bits/types/__FILE.h", directory: "/home/siddharthist/code/llvm-pretty-bc-parser/disasm-test/cpp")
!73 = distinct !DICompositeType(tag: DW_TAG_structure_type, name: "_IO_FILE", file: !74, line: 241, size: 1728, elements: !75, identifier: "_ZTS8_IO_FILE")
!74 = !DIFile(filename: "/nix/store/8hagj3k5q9vkyxnrl8431r4kpn4gf46l-glibc-2.26-131-dev/include/libio.h", directory: "/home/siddharthist/code/llvm-pretty-bc-parser/disasm-test/cpp")
!75 = !{!76, !77, !79, !80, !81, !82, !83, !84, !85, !86, !87, !88, !89, !92, !94, !95, !96, !99, !101, !103, !107, !110, !112, !114, !115, !116, !117, !121, !122}
!76 = !DIDerivedType(tag: DW_TAG_member, name: "_flags", scope: !73, file: !74, line: 242, baseType: !11, size: 32)
!77 = !DIDerivedType(tag: DW_TAG_member, name: "_IO_read_ptr", scope: !73, file: !74, line: 247, baseType: !78, size: 64, offset: 64)
!78 = !DIDerivedType(tag: DW_TAG_pointer_type, baseType: !54, size: 64)
!79 = !DIDerivedType(tag: DW_TAG_member, name: "_IO_read_end", scope: !73, file: !74, line: 248, baseType: !78, size: 64, offset: 128)
!80 = !DIDerivedType(tag: DW_TAG_member, name: "_IO_read_base", scope: !73, file: !74, line: 249, baseType: !78, size: 64, offset: 192)
!81 = !DIDerivedType(tag: DW_TAG_member, name: "_IO_write_base", scope: !73, file: !74, line: 250, baseType: !78, size: 64, offset: 256)
!82 = !DIDerivedType(tag: DW_TAG_member, name: "_IO_write_ptr", scope: !73, file: !74, line: 251, baseType: !78, size: 64, offset: 320)
!83 = !DIDerivedType(tag: DW_TAG_member, name: "_IO_write_end", scope: !73, file: !74, line: 252, baseType: !78, size: 64, offset: 384)
!84 = !DIDerivedType(tag: DW_TAG_member, name: "_IO_buf_base", scope: !73, file: !74, line: 253, baseType: !78, size: 64, offset: 448)
!85 = !DIDerivedType(tag: DW_TAG_member, name: "_IO_buf_end", scope: !73, file: !74, line: 254, baseType: !78, size: 64, offset: 512)
!86 = !DIDerivedType(tag: DW_TAG_member, name: "_IO_save_base", scope: !73, file: !74, line: 256, baseType: !78, size: 64, offset: 576)
!87 = !DIDerivedType(tag: DW_TAG_member, name: "_IO_backup_base", scope: !73, file: !74, line: 257, baseType: !78, size: 64, offset: 640)
!88 = !DIDerivedType(tag: DW_TAG_member, name: "_IO_save_end", scope: !73, file: !74, line: 258, baseType: !78, size: 64, offset: 704)
!89 = !DIDerivedType(tag: DW_TAG_member, name: "_markers", scope: !73, file: !74, line: 260, baseType: !90, size: 64, offset: 768)
!90 = !DIDerivedType(tag: DW_TAG_pointer_type, baseType: !91, size: 64)
!91 = !DICompositeType(tag: DW_TAG_structure_type, name: "_IO_marker", file: !74, line: 156, flags: DIFlagFwdDecl, identifier: "_ZTS10_IO_marker")
!92 = !DIDerivedType(tag: DW_TAG_member, name: "_chain", scope: !73, file: !74, line: 262, baseType: !93, size: 64, offset: 832)
!93 = !DIDerivedType(tag: DW_TAG_pointer_type, baseType: !73, size: 64)
!94 = !DIDerivedType(tag: DW_TAG_member, name: "_fileno", scope: !73, file: !74, line: 264, baseType: !11, size: 32, offset: 896)
!95 = !DIDerivedType(tag: DW_TAG_member, name: "_flags2", scope: !73, file: !74, line: 268, baseType: !11, size: 32, offset: 928)
!96 = !DIDerivedType(tag: DW_TAG_member, name: "_old_offset", scope: !73, file: !74, line: 270, baseType: !97, size: 64, offset: 960)
!97 = !DIDerivedType(tag: DW_TAG_typedef, name: "__off_t", file: !98, line: 140, baseType: !36)
!98 = !DIFile(filename: "/nix/store/8hagj3k5q9vkyxnrl8431r4kpn4gf46l-glibc-2.26-131-dev/include/bits/types.h", directory: "/home/siddharthist/code/llvm-pretty-bc-parser/disasm-test/cpp")
!99 = !DIDerivedType(tag: DW_TAG_member, name: "_cur_column", scope: !73, file: !74, line: 274, baseType: !100, size: 16, offset: 1024)
!100 = !DIBasicType(name: "unsigned short", size: 16, encoding: DW_ATE_unsigned)
!101 = !DIDerivedType(tag: DW_TAG_member, name: "_vtable_offset", scope: !73, file: !74, line: 275, baseType: !102, size: 8, offset: 1040)
!102 = !DIBasicType(name: "signed char", size: 8, encoding: DW_ATE_signed_char)
!103 = !DIDerivedType(tag: DW_TAG_member, name: "_shortbuf", scope: !73, file: !74, line: 276, baseType: !104, size: 8, offset: 1048)
!104 = !DICompositeType(tag: DW_TAG_array_type, baseType: !54, size: 8, elements: !105)
!105 = !{!106}
!106 = !DISubrange(count: 1)
!107 = !DIDerivedType(tag: DW_TAG_member, name: "_lock", scope: !73, file: !74, line: 280, baseType: !108, size: 64, offset: 1088)
!108 = !DIDerivedType(tag: DW_TAG_pointer_type, baseType: !109, size: 64)
!109 = !DIDerivedType(tag: DW_TAG_typedef, name: "_IO_lock_t", file: !74, line: 150, baseType: null)
!110 = !DIDerivedType(tag: DW_TAG_member, name: "_offset", scope: !73, file: !74, line: 289, baseType: !111, size: 64, offset: 1152)
!111 = !DIDerivedType(tag: DW_TAG_typedef, name: "__off64_t", file: !98, line: 141, baseType: !36)
!112 = !DIDerivedType(tag: DW_TAG_member, name: "__pad1", scope: !73, file: !74, line: 297, baseType: !113, size: 64, offset: 1216)
!113 = !DIDerivedType(tag: DW_TAG_pointer_type, baseType: null, size: 64)
!114 = !DIDerivedType(tag: DW_TAG_member, name: "__pad2", scope: !73, file: !74, line: 298, baseType: !113, size: 64, offset: 1280)
!115 = !DIDerivedType(tag: DW_TAG_member, name: "__pad3", scope: !73, file: !74, line: 299, baseType: !113, size: 64, offset: 1344)
!116 = !DIDerivedType(tag: DW_TAG_member, name: "__pad4", scope: !73, file: !74, line: 300, baseType: !113, size: 64, offset: 1408)
!117 = !DIDerivedType(tag: DW_TAG_member, name: "__pad5", scope: !73, file: !74, line: 302, baseType: !118, size: 64, offset: 1472)
!118 = !DIDerivedType(tag: DW_TAG_typedef, name: "size_t", file: !119, line: 62, baseType: !120)
!119 = !DIFile(filename: "/nix/store/cn1rr6ayq4n9ybp808yrfwdwsldp4yvy-clang-6.0.1/lib/clang/6.0.1/include/stddef.h", directory: "/home/siddharthist/code/llvm-pretty-bc-parser/disasm-test/cpp")
!120 = !DIBasicType(name: "long unsigned int", size: 64, encoding: DW_ATE_unsigned)
!121 = !DIDerivedType(tag: DW_TAG_member, name: "_mode", scope: !73, file: !74, line: 303, baseType: !11, size: 32, offset: 1536)
!122 = !DIDerivedType(tag: DW_TAG_member, name: "_unused2", scope: !73, file: !74, line: 305, baseType: !123, size: 160, offset: 1568)
!123 = !DICompositeType(tag: DW_TAG_array_type, baseType: !54, size: 160, elements: !124)
!124 = !{!125}
!125 = !DISubrange(count: 20)
!126 = !DIImportedEntity(tag: DW_TAG_imported_declaration, scope: !2, entity: !127, file: !57, line: 143)
!127 = !DISubprogram(name: "fgetws", scope: !128, file: !128, line: 384, type: !129, isLocal: false, isDefinition: false, flags: DIFlagPrototyped, isOptimized: true)
!128 = !DIFile(filename: "/nix/store/8hagj3k5q9vkyxnrl8431r4kpn4gf46l-glibc-2.26-131-dev/include/bits/wchar2.h", directory: "/home/siddharthist/code/llvm-pretty-bc-parser/disasm-test/cpp")
!129 = !DISubroutineType(types: !130)
!130 = !{!131, !133, !11, !134}
!131 = !DIDerivedType(tag: DW_TAG_pointer_type, baseType: !132, size: 64)
!132 = !DIBasicType(name: "wchar_t", size: 32, encoding: DW_ATE_signed)
!133 = !DIDerivedType(tag: DW_TAG_restrict_type, baseType: !131)
!134 = !DIDerivedType(tag: DW_TAG_restrict_type, baseType: !70)
!135 = !DIImportedEntity(tag: DW_TAG_imported_declaration, scope: !2, entity: !136, file: !57, line: 144)
!136 = !DISubprogram(name: "fputwc", scope: !63, file: !63, line: 674, type: !137, isLocal: false, isDefinition: false, flags: DIFlagPrototyped, isOptimized: true)
!137 = !DISubroutineType(types: !138)
!138 = !{!59, !132, !70}
!139 = !DIImportedEntity(tag: DW_TAG_imported_declaration, scope: !2, entity: !140, file: !57, line: 145)
!140 = !DISubprogram(name: "fputws", scope: !63, file: !63, line: 696, type: !141, isLocal: false, isDefinition: false, flags: DIFlagPrototyped, isOptimized: true)
!141 = !DISubroutineType(types: !142)
!142 = !{!11, !143, !134}
!143 = !DIDerivedType(tag: DW_TAG_restrict_type, baseType: !144)
!144 = !DIDerivedType(tag: DW_TAG_pointer_type, baseType: !145, size: 64)
!145 = !DIDerivedType(tag: DW_TAG_const_type, baseType: !132)
!146 = !DIImportedEntity(tag: DW_TAG_imported_declaration, scope: !2, entity: !147, file: !57, line: 146)
!147 = !DISubprogram(name: "fwide", scope: !63, file: !63, line: 506, type: !148, isLocal: false, isDefinition: false, flags: DIFlagPrototyped, isOptimized: true)
!148 = !DISubroutineType(types: !149)
!149 = !{!11, !70, !11}
!150 = !DIImportedEntity(tag: DW_TAG_imported_declaration, scope: !2, entity: !151, file: !57, line: 147)
!151 = !DISubprogram(name: "fwprintf", scope: !63, file: !63, line: 513, type: !152, isLocal: false, isDefinition: false, flags: DIFlagPrototyped, isOptimized: true)
!152 = !DISubroutineType(types: !153)
!153 = !{!11, !134, !143, null}
!154 = !DIImportedEntity(tag: DW_TAG_imported_declaration, scope: !2, entity: !155, file: !57, line: 148)
!155 = !DISubprogram(name: "fwscanf", scope: !63, file: !63, line: 554, type: !152, isLocal: false, isDefinition: false, flags: DIFlagPrototyped, isOptimized: true)
!156 = !DIImportedEntity(tag: DW_TAG_imported_declaration, scope: !2, entity: !157, file: !57, line: 149)
!157 = !DISubprogram(name: "getwc", scope: !63, file: !63, line: 661, type: !68, isLocal: false, isDefinition: false, flags: DIFlagPrototyped, isOptimized: true)
!158 = !DIImportedEntity(tag: DW_TAG_imported_declaration, scope: !2, entity: !159, file: !57, line: 150)
!159 = !DISubprogram(name: "getwchar", scope: !63, file: !63, line: 667, type: !160, isLocal: false, isDefinition: false, flags: DIFlagPrototyped, isOptimized: true)
!160 = !DISubroutineType(types: !161)
!161 = !{!59}
!162 = !DIImportedEntity(tag: DW_TAG_imported_declaration, scope: !2, entity: !163, file: !57, line: 151)
!163 = !DISubprogram(name: "mbrlen", scope: !63, file: !63, line: 329, type: !164, isLocal: false, isDefinition: false, flags: DIFlagPrototyped, isOptimized: true)
!164 = !DISubroutineType(types: !165)
!165 = !{!118, !166, !118, !169}
!166 = !DIDerivedType(tag: DW_TAG_restrict_type, baseType: !167)
!167 = !DIDerivedType(tag: DW_TAG_pointer_type, baseType: !168, size: 64)
!168 = !DIDerivedType(tag: DW_TAG_const_type, baseType: !54)
!169 = !DIDerivedType(tag: DW_TAG_restrict_type, baseType: !170)
!170 = !DIDerivedType(tag: DW_TAG_pointer_type, baseType: !40, size: 64)
!171 = !DIImportedEntity(tag: DW_TAG_imported_declaration, scope: !2, entity: !172, file: !57, line: 152)
!172 = !DISubprogram(name: "mbrtowc", scope: !63, file: !63, line: 296, type: !173, isLocal: false, isDefinition: false, flags: DIFlagPrototyped, isOptimized: true)
!173 = !DISubroutineType(types: !174)
!174 = !{!118, !133, !166, !118, !169}
!175 = !DIImportedEntity(tag: DW_TAG_imported_declaration, scope: !2, entity: !176, file: !57, line: 153)
!176 = !DISubprogram(name: "mbsinit", scope: !63, file: !63, line: 292, type: !177, isLocal: false, isDefinition: false, flags: DIFlagPrototyped, isOptimized: true)
!177 = !DISubroutineType(types: !178)
!178 = !{!11, !179}
!179 = !DIDerivedType(tag: DW_TAG_pointer_type, baseType: !180, size: 64)
!180 = !DIDerivedType(tag: DW_TAG_const_type, baseType: !40)
!181 = !DIImportedEntity(tag: DW_TAG_imported_declaration, scope: !2, entity: !182, file: !57, line: 154)
!182 = !DISubprogram(name: "mbsrtowcs", scope: !128, file: !128, line: 474, type: !183, isLocal: false, isDefinition: false, flags: DIFlagPrototyped, isOptimized: true)
!183 = !DISubroutineType(types: !184)
!184 = !{!118, !133, !185, !118, !169}
!185 = !DIDerivedType(tag: DW_TAG_restrict_type, baseType: !186)
!186 = !DIDerivedType(tag: DW_TAG_pointer_type, baseType: !167, size: 64)
!187 = !DIImportedEntity(tag: DW_TAG_imported_declaration, scope: !2, entity: !188, file: !57, line: 155)
!188 = !DISubprogram(name: "putwc", scope: !63, file: !63, line: 675, type: !137, isLocal: false, isDefinition: false, flags: DIFlagPrototyped, isOptimized: true)
!189 = !DIImportedEntity(tag: DW_TAG_imported_declaration, scope: !2, entity: !190, file: !57, line: 156)
!190 = !DISubprogram(name: "putwchar", scope: !63, file: !63, line: 681, type: !191, isLocal: false, isDefinition: false, flags: DIFlagPrototyped, isOptimized: true)
!191 = !DISubroutineType(types: !192)
!192 = !{!59, !132}
!193 = !DIImportedEntity(tag: DW_TAG_imported_declaration, scope: !2, entity: !194, file: !57, line: 158)
!194 = !DISubprogram(name: "swprintf", scope: !63, file: !63, line: 523, type: !195, isLocal: false, isDefinition: false, flags: DIFlagPrototyped, isOptimized: true)
!195 = !DISubroutineType(types: !196)
!196 = !{!11, !133, !118, !143, null}
!197 = !DIImportedEntity(tag: DW_TAG_imported_declaration, scope: !2, entity: !198, file: !57, line: 160)
!198 = !DISubprogram(name: "swscanf", scope: !63, file: !63, line: 564, type: !199, isLocal: false, isDefinition: false, flags: DIFlagPrototyped, isOptimized: true)
!199 = !DISubroutineType(types: !200)
!200 = !{!11, !143, !143, null}
!201 = !DIImportedEntity(tag: DW_TAG_imported_declaration, scope: !2, entity: !202, file: !57, line: 161)
!202 = !DISubprogram(name: "ungetwc", scope: !63, file: !63, line: 704, type: !203, isLocal: false, isDefinition: false, flags: DIFlagPrototyped, isOptimized: true)
!203 = !DISubroutineType(types: !204)
!204 = !{!59, !59, !70}
!205 = !DIImportedEntity(tag: DW_TAG_imported_declaration, scope: !2, entity: !206, file: !57, line: 162)
!206 = !DISubprogram(name: "vfwprintf", scope: !128, file: !128, line: 364, type: !207, isLocal: false, isDefinition: false, flags: DIFlagPrototyped, isOptimized: true)
!207 = !DISubroutineType(types: !208)
!208 = !{!11, !134, !143, !209}
!209 = !DIDerivedType(tag: DW_TAG_pointer_type, baseType: !210, size: 64)
!210 = distinct !DICompositeType(tag: DW_TAG_structure_type, name: "__va_list_tag", file: !20, size: 192, elements: !211, identifier: "_ZTS13__va_list_tag")
!211 = !{!212, !213, !214, !215}
!212 = !DIDerivedType(tag: DW_TAG_member, name: "gp_offset", scope: !210, file: !20, baseType: !51, size: 32)
!213 = !DIDerivedType(tag: DW_TAG_member, name: "fp_offset", scope: !210, file: !20, baseType: !51, size: 32, offset: 32)
!214 = !DIDerivedType(tag: DW_TAG_member, name: "overflow_arg_area", scope: !210, file: !20, baseType: !113, size: 64, offset: 64)
!215 = !DIDerivedType(tag: DW_TAG_member, name: "reg_save_area", scope: !210, file: !20, baseType: !113, size: 64, offset: 128)
!216 = !DIImportedEntity(tag: DW_TAG_imported_declaration, scope: !2, entity: !217, file: !57, line: 164)
!217 = !DISubprogram(name: "vfwscanf", scope: !63, file: !63, line: 606, type: !207, isLocal: false, isDefinition: false, flags: DIFlagPrototyped, isOptimized: true)
!218 = !DIImportedEntity(tag: DW_TAG_imported_declaration, scope: !2, entity: !219, file: !57, line: 167)
!219 = !DISubprogram(name: "vswprintf", scope: !128, file: !128, line: 315, type: !220, isLocal: false, isDefinition: false, flags: DIFlagPrototyped, isOptimized: true)
!220 = !DISubroutineType(types: !221)
!221 = !{!11, !133, !118, !143, !209}
!222 = !DIImportedEntity(tag: DW_TAG_imported_declaration, scope: !2, entity: !223, file: !57, line: 170)
!223 = !DISubprogram(name: "vswscanf", scope: !63, file: !63, line: 618, type: !224, isLocal: false, isDefinition: false, flags: DIFlagPrototyped, isOptimized: true)
!224 = !DISubroutineType(types: !225)
!225 = !{!11, !143, !143, !209}
!226 = !DIImportedEntity(tag: DW_TAG_imported_declaration, scope: !2, entity: !227, file: !57, line: 172)
!227 = !DISubprogram(name: "vwprintf", scope: !128, file: !128, line: 358, type: !228, isLocal: false, isDefinition: false, flags: DIFlagPrototyped, isOptimized: true)
!228 = !DISubroutineType(types: !229)
!229 = !{!11, !143, !209}
!230 = !DIImportedEntity(tag: DW_TAG_imported_declaration, scope: !2, entity: !231, file: !57, line: 174)
!231 = !DISubprogram(name: "vwscanf", scope: !63, file: !63, line: 614, type: !228, isLocal: false, isDefinition: false, flags: DIFlagPrototyped, isOptimized: true)
!232 = !DIImportedEntity(tag: DW_TAG_imported_declaration, scope: !2, entity: !233, file: !57, line: 176)
!233 = !DISubprogram(name: "wcrtomb", scope: !128, file: !128, line: 440, type: !234, isLocal: false, isDefinition: false, flags: DIFlagPrototyped, isOptimized: true)
!234 = !DISubroutineType(types: !235)
!235 = !{!118, !236, !132, !169}
!236 = !DIDerivedType(tag: DW_TAG_restrict_type, baseType: !78)
!237 = !DIImportedEntity(tag: DW_TAG_imported_declaration, scope: !2, entity: !238, file: !57, line: 177)
!238 = !DISubprogram(name: "wcscat", scope: !128, file: !128, line: 246, type: !239, isLocal: false, isDefinition: false, flags: DIFlagPrototyped, isOptimized: true)
!239 = !DISubroutineType(types: !240)
!240 = !{!131, !133, !143}
!241 = !DIImportedEntity(tag: DW_TAG_imported_declaration, scope: !2, entity: !242, file: !57, line: 178)
!242 = !DISubprogram(name: "wcscmp", scope: !63, file: !63, line: 106, type: !243, isLocal: false, isDefinition: false, flags: DIFlagPrototyped, isOptimized: true)
!243 = !DISubroutineType(types: !244)
!244 = !{!11, !144, !144}
!245 = !DIImportedEntity(tag: DW_TAG_imported_declaration, scope: !2, entity: !246, file: !57, line: 179)
!246 = !DISubprogram(name: "wcscoll", scope: !63, file: !63, line: 131, type: !243, isLocal: false, isDefinition: false, flags: DIFlagPrototyped, isOptimized: true)
!247 = !DIImportedEntity(tag: DW_TAG_imported_declaration, scope: !2, entity: !248, file: !57, line: 180)
!248 = !DISubprogram(name: "wcscpy", scope: !128, file: !128, line: 152, type: !239, isLocal: false, isDefinition: false, flags: DIFlagPrototyped, isOptimized: true)
!249 = !DIImportedEntity(tag: DW_TAG_imported_declaration, scope: !2, entity: !250, file: !57, line: 181)
!250 = !DISubprogram(name: "wcscspn", scope: !63, file: !63, line: 187, type: !251, isLocal: false, isDefinition: false, flags: DIFlagPrototyped, isOptimized: true)
!251 = !DISubroutineType(types: !252)
!252 = !{!118, !144, !144}
!253 = !DIImportedEntity(tag: DW_TAG_imported_declaration, scope: !2, entity: !254, file: !57, line: 182)
!254 = !DISubprogram(name: "wcsftime", scope: !63, file: !63, line: 768, type: !255, isLocal: false, isDefinition: false, flags: DIFlagPrototyped, isOptimized: true)
!255 = !DISubroutineType(types: !256)
!256 = !{!118, !133, !118, !143, !257}
!257 = !DIDerivedType(tag: DW_TAG_restrict_type, baseType: !258)
!258 = !DIDerivedType(tag: DW_TAG_pointer_type, baseType: !259, size: 64)
!259 = !DIDerivedType(tag: DW_TAG_const_type, baseType: !260)
!260 = !DICompositeType(tag: DW_TAG_structure_type, name: "tm", file: !63, line: 83, flags: DIFlagFwdDecl, identifier: "_ZTS2tm")
!261 = !DIImportedEntity(tag: DW_TAG_imported_declaration, scope: !2, entity: !262, file: !57, line: 183)
!262 = !DISubprogram(name: "wcslen", scope: !63, file: !63, line: 222, type: !263, isLocal: false, isDefinition: false, flags: DIFlagPrototyped, isOptimized: true)
!263 = !DISubroutineType(types: !264)
!264 = !{!118, !144}
!265 = !DIImportedEntity(tag: DW_TAG_imported_declaration, scope: !2, entity: !266, file: !57, line: 184)
!266 = !DISubprogram(name: "wcsncat", scope: !128, file: !128, line: 263, type: !267, isLocal: false, isDefinition: false, flags: DIFlagPrototyped, isOptimized: true)
!267 = !DISubroutineType(types: !268)
!268 = !{!131, !133, !143, !118}
!269 = !DIImportedEntity(tag: DW_TAG_imported_declaration, scope: !2, entity: !270, file: !57, line: 185)
!270 = !DISubprogram(name: "wcsncmp", scope: !63, file: !63, line: 109, type: !271, isLocal: false, isDefinition: false, flags: DIFlagPrototyped, isOptimized: true)
!271 = !DISubroutineType(types: !272)
!272 = !{!11, !144, !144, !118}
!273 = !DIImportedEntity(tag: DW_TAG_imported_declaration, scope: !2, entity: !274, file: !57, line: 186)
!274 = !DISubprogram(name: "wcsncpy", scope: !128, file: !128, line: 191, type: !267, isLocal: false, isDefinition: false, flags: DIFlagPrototyped, isOptimized: true)
!275 = !DIImportedEntity(tag: DW_TAG_imported_declaration, scope: !2, entity: !276, file: !57, line: 187)
!276 = !DISubprogram(name: "wcsrtombs", scope: !128, file: !128, line: 508, type: !277, isLocal: false, isDefinition: false, flags: DIFlagPrototyped, isOptimized: true)
!277 = !DISubroutineType(types: !278)
!278 = !{!118, !236, !279, !118, !169}
!279 = !DIDerivedType(tag: DW_TAG_restrict_type, baseType: !280)
!280 = !DIDerivedType(tag: DW_TAG_pointer_type, baseType: !144, size: 64)
!281 = !DIImportedEntity(tag: DW_TAG_imported_declaration, scope: !2, entity: !282, file: !57, line: 188)
!282 = !DISubprogram(name: "wcsspn", scope: !63, file: !63, line: 191, type: !251, isLocal: false, isDefinition: false, flags: DIFlagPrototyped, isOptimized: true)
!283 = !DIImportedEntity(tag: DW_TAG_imported_declaration, scope: !2, entity: !284, file: !57, line: 189)
!284 = !DISubprogram(name: "wcstod", scope: !63, file: !63, line: 377, type: !285, isLocal: false, isDefinition: false, flags: DIFlagPrototyped, isOptimized: true)
!285 = !DISubroutineType(types: !286)
!286 = !{!287, !143, !288}
!287 = !DIBasicType(name: "double", size: 64, encoding: DW_ATE_float)
!288 = !DIDerivedType(tag: DW_TAG_restrict_type, baseType: !289)
!289 = !DIDerivedType(tag: DW_TAG_pointer_type, baseType: !131, size: 64)
!290 = !DIImportedEntity(tag: DW_TAG_imported_declaration, scope: !2, entity: !291, file: !57, line: 191)
!291 = !DISubprogram(name: "wcstof", scope: !63, file: !63, line: 382, type: !292, isLocal: false, isDefinition: false, flags: DIFlagPrototyped, isOptimized: true)
!292 = !DISubroutineType(types: !293)
!293 = !{!294, !143, !288}
!294 = !DIBasicType(name: "float", size: 32, encoding: DW_ATE_float)
!295 = !DIImportedEntity(tag: DW_TAG_imported_declaration, scope: !2, entity: !296, file: !57, line: 193)
!296 = !DISubprogram(name: "wcstok", scope: !63, file: !63, line: 217, type: !297, isLocal: false, isDefinition: false, flags: DIFlagPrototyped, isOptimized: true)
!297 = !DISubroutineType(types: !298)
!298 = !{!131, !133, !143, !288}
!299 = !DIImportedEntity(tag: DW_TAG_imported_declaration, scope: !2, entity: !300, file: !57, line: 194)
!300 = !DISubprogram(name: "wcstol", scope: !63, file: !63, line: 397, type: !301, isLocal: false, isDefinition: false, flags: DIFlagPrototyped, isOptimized: true)
!301 = !DISubroutineType(types: !302)
!302 = !{!36, !143, !288, !11}
!303 = !DIImportedEntity(tag: DW_TAG_imported_declaration, scope: !2, entity: !304, file: !57, line: 195)
!304 = !DISubprogram(name: "wcstoul", scope: !63, file: !63, line: 402, type: !305, isLocal: false, isDefinition: false, flags: DIFlagPrototyped, isOptimized: true)
!305 = !DISubroutineType(types: !306)
!306 = !{!120, !143, !288, !11}
!307 = !DIImportedEntity(tag: DW_TAG_imported_declaration, scope: !2, entity: !308, file: !57, line: 196)
!308 = !DISubprogram(name: "wcsxfrm", scope: !63, file: !63, line: 135, type: !309, isLocal: false, isDefinition: false, flags: DIFlagPrototyped, isOptimized: true)
!309 = !DISubroutineType(types: !310)
!310 = !{!118, !133, !143, !118}
!311 = !DIImportedEntity(tag: DW_TAG_imported_declaration, scope: !2, entity: !312, file: !57, line: 197)
!312 = !DISubprogram(name: "wctob", scope: !63, file: !63, line: 324, type: !313, isLocal: false, isDefinition: false, flags: DIFlagPrototyped, isOptimized: true)
!313 = !DISubroutineType(types: !314)
!314 = !{!11, !59}
!315 = !DIImportedEntity(tag: DW_TAG_imported_declaration, scope: !2, entity: !316, file: !57, line: 198)
!316 = !DISubprogram(name: "wmemcmp", scope: !63, file: !63, line: 258, type: !271, isLocal: false, isDefinition: false, flags: DIFlagPrototyped, isOptimized: true)
!317 = !DIImportedEntity(tag: DW_TAG_imported_declaration, scope: !2, entity: !318, file: !57, line: 199)
!318 = !DISubprogram(name: "wmemcpy", scope: !128, file: !128, line: 39, type: !267, isLocal: false, isDefinition: false, flags: DIFlagPrototyped, isOptimized: true)
!319 = !DIImportedEntity(tag: DW_TAG_imported_declaration, scope: !2, entity: !320, file: !57, line: 200)
!320 = !DISubprogram(name: "wmemmove", scope: !128, file: !128, line: 68, type: !321, isLocal: false, isDefinition: false, flags: DIFlagPrototyped, isOptimized: true)
!321 = !DISubroutineType(types: !322)
!322 = !{!131, !131, !144, !118}
!323 = !DIImportedEntity(tag: DW_TAG_imported_declaration, scope: !2, entity: !324, file: !57, line: 201)
!324 = !DISubprogram(name: "wmemset", scope: !128, file: !128, line: 129, type: !325, isLocal: false, isDefinition: false, flags: DIFlagPrototyped, isOptimized: true)
!325 = !DISubroutineType(types: !326)
!326 = !{!131, !131, !132, !118}
!327 = !DIImportedEntity(tag: DW_TAG_imported_declaration, scope: !2, entity: !328, file: !57, line: 202)
!328 = !DISubprogram(name: "wprintf", scope: !63, file: !63, line: 520, type: !329, isLocal: false, isDefinition: false, flags: DIFlagPrototyped, isOptimized: true)
!329 = !DISubroutineType(types: !330)
!330 = !{!11, !143, null}
!331 = !DIImportedEntity(tag: DW_TAG_imported_declaration, scope: !2, entity: !332, file: !57, line: 203)
!332 = !DISubprogram(name: "wscanf", scope: !63, file: !63, line: 561, type: !329, isLocal: false, isDefinition: false, flags: DIFlagPrototyped, isOptimized: true)
!333 = !DIImportedEntity(tag: DW_TAG_imported_declaration, scope: !2, entity: !334, file: !57, line: 204)
!334 = !DISubprogram(name: "wcschr", scope: !63, file: !63, line: 164, type: !335, isLocal: false, isDefinition: false, flags: DIFlagPrototyped, isOptimized: true)
!335 = !DISubroutineType(types: !336)
!336 = !{!131, !144, !132}
!337 = !DIImportedEntity(tag: DW_TAG_imported_declaration, scope: !2, entity: !338, file: !57, line: 205)
!338 = !DISubprogram(name: "wcspbrk", scope: !63, file: !63, line: 201, type: !339, isLocal: false, isDefinition: false, flags: DIFlagPrototyped, isOptimized: true)
!339 = !DISubroutineType(types: !340)
!340 = !{!131, !144, !144}
!341 = !DIImportedEntity(tag: DW_TAG_imported_declaration, scope: !2, entity: !342, file: !57, line: 206)
!342 = !DISubprogram(name: "wcsrchr", scope: !63, file: !63, line: 174, type: !335, isLocal: false, isDefinition: false, flags: DIFlagPrototyped, isOptimized: true)
!343 = !DIImportedEntity(tag: DW_TAG_imported_declaration, scope: !2, entity: !344, file: !57, line: 207)
!344 = !DISubprogram(name: "wcsstr", scope: !63, file: !63, line: 212, type: !339, isLocal: false, isDefinition: false, flags: DIFlagPrototyped, isOptimized: true)
!345 = !DIImportedEntity(tag: DW_TAG_imported_declaration, scope: !2, entity: !346, file: !57, line: 208)
!346 = !DISubprogram(name: "wmemchr", scope: !63, file: !63, line: 253, type: !347, isLocal: false, isDefinition: false, flags: DIFlagPrototyped, isOptimized: true)
!347 = !DISubroutineType(types: !348)
!348 = !{!131, !144, !132, !118}
!349 = !DIImportedEntity(tag: DW_TAG_imported_declaration, scope: !350, entity: !351, file: !57, line: 248)
!350 = !DINamespace(name: "__gnu_cxx", scope: null)
!351 = !DISubprogram(name: "wcstold", scope: !63, file: !63, line: 384, type: !352, isLocal: false, isDefinition: false, flags: DIFlagPrototyped, isOptimized: true)
!352 = !DISubroutineType(types: !353)
!353 = !{!354, !143, !288}
!354 = !DIBasicType(name: "long double", size: 128, encoding: DW_ATE_float)
!355 = !DIImportedEntity(tag: DW_TAG_imported_declaration, scope: !350, entity: !356, file: !57, line: 257)
!356 = !DISubprogram(name: "wcstoll", scope: !63, file: !63, line: 410, type: !357, isLocal: false, isDefinition: false, flags: DIFlagPrototyped, isOptimized: true)
!357 = !DISubroutineType(types: !358)
!358 = !{!359, !143, !288, !11}
!359 = !DIBasicType(name: "long long int", size: 64, encoding: DW_ATE_signed)
!360 = !DIImportedEntity(tag: DW_TAG_imported_declaration, scope: !350, entity: !361, file: !57, line: 258)
!361 = !DISubprogram(name: "wcstoull", scope: !63, file: !63, line: 417, type: !362, isLocal: false, isDefinition: false, flags: DIFlagPrototyped, isOptimized: true)
!362 = !DISubroutineType(types: !363)
!363 = !{!364, !143, !288, !11}
!364 = !DIBasicType(name: "long long unsigned int", size: 64, encoding: DW_ATE_unsigned)
!365 = !DIImportedEntity(tag: DW_TAG_imported_declaration, scope: !2, entity: !351, file: !57, line: 264)
!366 = !DIImportedEntity(tag: DW_TAG_imported_declaration, scope: !2, entity: !356, file: !57, line: 265)
!367 = !DIImportedEntity(tag: DW_TAG_imported_declaration, scope: !2, entity: !361, file: !57, line: 266)
!368 = !DIImportedEntity(tag: DW_TAG_imported_declaration, scope: !2, entity: !291, file: !57, line: 280)
!369 = !DIImportedEntity(tag: DW_TAG_imported_declaration, scope: !2, entity: !217, file: !57, line: 283)
!370 = !DIImportedEntity(tag: DW_TAG_imported_declaration, scope: !2, entity: !223, file: !57, line: 286)
!371 = !DIImportedEntity(tag: DW_TAG_imported_declaration, scope: !2, entity: !231, file: !57, line: 289)
!372 = !DIImportedEntity(tag: DW_TAG_imported_declaration, scope: !2, entity: !351, file: !57, line: 293)
!373 = !DIImportedEntity(tag: DW_TAG_imported_declaration, scope: !2, entity: !356, file: !57, line: 294)
!374 = !DIImportedEntity(tag: DW_TAG_imported_declaration, scope: !2, entity: !361, file: !57, line: 295)
!375 = !DIImportedEntity(tag: DW_TAG_imported_declaration, scope: !2, entity: !376, file: !377, line: 57)
!376 = distinct !DICompositeType(tag: DW_TAG_class_type, name: "exception_ptr", scope: !378, file: !377, line: 79, size: 64, elements: !379, identifier: "_ZTSNSt15__exception_ptr13exception_ptrE")
!377 = !DIFile(filename: "/nix/store/czxcii58v6d3yhrq9r667zw91192rcgk-gcc-7.3.0/include/c++/7.3.0/bits/exception_ptr.h", directory: "/home/siddharthist/code/llvm-pretty-bc-parser/disasm-test/cpp")
!378 = !DINamespace(name: "__exception_ptr", scope: !2)
!379 = !{!380, !381, !385, !388, !389, !394, !395, !399, !404, !408, !412, !415, !416, !419, !422}
!380 = !DIDerivedType(tag: DW_TAG_member, name: "_M_exception_object", scope: !376, file: !377, line: 81, baseType: !113, size: 64)
!381 = !DISubprogram(name: "exception_ptr", scope: !376, file: !377, line: 83, type: !382, isLocal: false, isDefinition: false, scopeLine: 83, flags: DIFlagExplicit | DIFlagPrototyped, isOptimized: true)
!382 = !DISubroutineType(types: !383)
!383 = !{null, !384, !113}
!384 = !DIDerivedType(tag: DW_TAG_pointer_type, baseType: !376, size: 64, flags: DIFlagArtificial | DIFlagObjectPointer)
!385 = !DISubprogram(name: "_M_addref", linkageName: "_ZNSt15__exception_ptr13exception_ptr9_M_addrefEv", scope: !376, file: !377, line: 85, type: !386, isLocal: false, isDefinition: false, scopeLine: 85, flags: DIFlagPrototyped, isOptimized: true)
!386 = !DISubroutineType(types: !387)
!387 = !{null, !384}
!388 = !DISubprogram(name: "_M_release", linkageName: "_ZNSt15__exception_ptr13exception_ptr10_M_releaseEv", scope: !376, file: !377, line: 86, type: !386, isLocal: false, isDefinition: false, scopeLine: 86, flags: DIFlagPrototyped, isOptimized: true)
!389 = !DISubprogram(name: "_M_get", linkageName: "_ZNKSt15__exception_ptr13exception_ptr6_M_getEv", scope: !376, file: !377, line: 88, type: !390, isLocal: false, isDefinition: false, scopeLine: 88, flags: DIFlagPrototyped, isOptimized: true)
!390 = !DISubroutineType(types: !391)
!391 = !{!113, !392}
!392 = !DIDerivedType(tag: DW_TAG_pointer_type, baseType: !393, size: 64, flags: DIFlagArtificial | DIFlagObjectPointer)
!393 = !DIDerivedType(tag: DW_TAG_const_type, baseType: !376)
!394 = !DISubprogram(name: "exception_ptr", scope: !376, file: !377, line: 96, type: !386, isLocal: false, isDefinition: false, scopeLine: 96, flags: DIFlagPublic | DIFlagPrototyped, isOptimized: true)
!395 = !DISubprogram(name: "exception_ptr", scope: !376, file: !377, line: 98, type: !396, isLocal: false, isDefinition: false, scopeLine: 98, flags: DIFlagPublic | DIFlagPrototyped, isOptimized: true)
!396 = !DISubroutineType(types: !397)
!397 = !{null, !384, !398}
!398 = !DIDerivedType(tag: DW_TAG_reference_type, baseType: !393, size: 64)
!399 = !DISubprogram(name: "exception_ptr", scope: !376, file: !377, line: 101, type: !400, isLocal: false, isDefinition: false, scopeLine: 101, flags: DIFlagPublic | DIFlagPrototyped, isOptimized: true)
!400 = !DISubroutineType(types: !401)
!401 = !{null, !384, !402}
!402 = !DIDerivedType(tag: DW_TAG_typedef, name: "nullptr_t", scope: !2, file: !35, line: 235, baseType: !403)
!403 = !DIBasicType(tag: DW_TAG_unspecified_type, name: "decltype(nullptr)")
!404 = !DISubprogram(name: "exception_ptr", scope: !376, file: !377, line: 105, type: !405, isLocal: false, isDefinition: false, scopeLine: 105, flags: DIFlagPublic | DIFlagPrototyped, isOptimized: true)
!405 = !DISubroutineType(types: !406)
!406 = !{null, !384, !407}
!407 = !DIDerivedType(tag: DW_TAG_rvalue_reference_type, baseType: !376, size: 64)
!408 = !DISubprogram(name: "operator=", linkageName: "_ZNSt15__exception_ptr13exception_ptraSERKS0_", scope: !376, file: !377, line: 118, type: !409, isLocal: false, isDefinition: false, scopeLine: 118, flags: DIFlagPublic | DIFlagPrototyped, isOptimized: true)
!409 = !DISubroutineType(types: !410)
!410 = !{!411, !384, !398}
!411 = !DIDerivedType(tag: DW_TAG_reference_type, baseType: !376, size: 64)
!412 = !DISubprogram(name: "operator=", linkageName: "_ZNSt15__exception_ptr13exception_ptraSEOS0_", scope: !376, file: !377, line: 122, type: !413, isLocal: false, isDefinition: false, scopeLine: 122, flags: DIFlagPublic | DIFlagPrototyped, isOptimized: true)
!413 = !DISubroutineType(types: !414)
!414 = !{!411, !384, !407}
!415 = !DISubprogram(name: "~exception_ptr", scope: !376, file: !377, line: 129, type: !386, isLocal: false, isDefinition: false, scopeLine: 129, flags: DIFlagPublic | DIFlagPrototyped, isOptimized: true)
!416 = !DISubprogram(name: "swap", linkageName: "_ZNSt15__exception_ptr13exception_ptr4swapERS0_", scope: !376, file: !377, line: 132, type: !417, isLocal: false, isDefinition: false, scopeLine: 132, flags: DIFlagPublic | DIFlagPrototyped, isOptimized: true)
!417 = !DISubroutineType(types: !418)
!418 = !{null, !384, !411}
!419 = !DISubprogram(name: "operator bool", linkageName: "_ZNKSt15__exception_ptr13exception_ptrcvbEv", scope: !376, file: !377, line: 144, type: !420, isLocal: false, isDefinition: false, scopeLine: 144, flags: DIFlagPublic | DIFlagExplicit | DIFlagPrototyped, isOptimized: true)
!420 = !DISubroutineType(types: !421)
!421 = !{!13, !392}
!422 = !DISubprogram(name: "__cxa_exception_type", linkageName: "_ZNKSt15__exception_ptr13exception_ptr20__cxa_exception_typeEv", scope: !376, file: !377, line: 153, type: !423, isLocal: false, isDefinition: false, scopeLine: 153, flags: DIFlagPublic | DIFlagPrototyped, isOptimized: true)
!423 = !DISubroutineType(types: !424)
!424 = !{!425, !392}
!425 = !DIDerivedType(tag: DW_TAG_pointer_type, baseType: !426, size: 64)
!426 = !DIDerivedType(tag: DW_TAG_const_type, baseType: !427)
!427 = !DICompositeType(tag: DW_TAG_class_type, name: "type_info", scope: !2, file: !428, line: 88, flags: DIFlagFwdDecl, identifier: "_ZTSSt9type_info")
!428 = !DIFile(filename: "/nix/store/czxcii58v6d3yhrq9r667zw91192rcgk-gcc-7.3.0/include/c++/7.3.0/typeinfo", directory: "/home/siddharthist/code/llvm-pretty-bc-parser/disasm-test/cpp")
!429 = !DIImportedEntity(tag: DW_TAG_imported_declaration, scope: !378, entity: !430, file: !377, line: 73)
!430 = !DISubprogram(name: "rethrow_exception", linkageName: "_ZSt17rethrow_exceptionNSt15__exception_ptr13exception_ptrE", scope: !2, file: !377, line: 69, type: !431, isLocal: false, isDefinition: false, flags: DIFlagPrototyped | DIFlagNoReturn, isOptimized: true)
!431 = !DISubroutineType(types: !432)
!432 = !{null, !376}
!433 = !DIImportedEntity(tag: DW_TAG_imported_module, scope: !434, entity: !435, file: !436, line: 58)
!434 = !DINamespace(name: "__gnu_debug", scope: null)
!435 = !DINamespace(name: "__debug", scope: !2)
!436 = !DIFile(filename: "/nix/store/czxcii58v6d3yhrq9r667zw91192rcgk-gcc-7.3.0/include/c++/7.3.0/debug/debug.h", directory: "/home/siddharthist/code/llvm-pretty-bc-parser/disasm-test/cpp")
!437 = !DIImportedEntity(tag: DW_TAG_imported_declaration, scope: !2, entity: !438, file: !441, line: 48)
!438 = !DIDerivedType(tag: DW_TAG_typedef, name: "int8_t", file: !439, line: 24, baseType: !440)
!439 = !DIFile(filename: "/nix/store/8hagj3k5q9vkyxnrl8431r4kpn4gf46l-glibc-2.26-131-dev/include/bits/stdint-intn.h", directory: "/home/siddharthist/code/llvm-pretty-bc-parser/disasm-test/cpp")
!440 = !DIDerivedType(tag: DW_TAG_typedef, name: "__int8_t", file: !98, line: 36, baseType: !102)
!441 = !DIFile(filename: "/nix/store/czxcii58v6d3yhrq9r667zw91192rcgk-gcc-7.3.0/include/c++/7.3.0/cstdint", directory: "/home/siddharthist/code/llvm-pretty-bc-parser/disasm-test/cpp")
!442 = !DIImportedEntity(tag: DW_TAG_imported_declaration, scope: !2, entity: !443, file: !441, line: 49)
!443 = !DIDerivedType(tag: DW_TAG_typedef, name: "int16_t", file: !439, line: 25, baseType: !444)
!444 = !DIDerivedType(tag: DW_TAG_typedef, name: "__int16_t", file: !98, line: 38, baseType: !445)
!445 = !DIBasicType(name: "short", size: 16, encoding: DW_ATE_signed)
!446 = !DIImportedEntity(tag: DW_TAG_imported_declaration, scope: !2, entity: !447, file: !441, line: 50)
!447 = !DIDerivedType(tag: DW_TAG_typedef, name: "int32_t", file: !439, line: 26, baseType: !448)
!448 = !DIDerivedType(tag: DW_TAG_typedef, name: "__int32_t", file: !98, line: 40, baseType: !11)
!449 = !DIImportedEntity(tag: DW_TAG_imported_declaration, scope: !2, entity: !450, file: !441, line: 51)
!450 = !DIDerivedType(tag: DW_TAG_typedef, name: "int64_t", file: !439, line: 27, baseType: !451)
!451 = !DIDerivedType(tag: DW_TAG_typedef, name: "__int64_t", file: !98, line: 43, baseType: !36)
!452 = !DIImportedEntity(tag: DW_TAG_imported_declaration, scope: !2, entity: !453, file: !441, line: 53)
!453 = !DIDerivedType(tag: DW_TAG_typedef, name: "int_fast8_t", file: !454, line: 68, baseType: !102)
!454 = !DIFile(filename: "/nix/store/8hagj3k5q9vkyxnrl8431r4kpn4gf46l-glibc-2.26-131-dev/include/stdint.h", directory: "/home/siddharthist/code/llvm-pretty-bc-parser/disasm-test/cpp")
!455 = !DIImportedEntity(tag: DW_TAG_imported_declaration, scope: !2, entity: !456, file: !441, line: 54)
!456 = !DIDerivedType(tag: DW_TAG_typedef, name: "int_fast16_t", file: !454, line: 70, baseType: !36)
!457 = !DIImportedEntity(tag: DW_TAG_imported_declaration, scope: !2, entity: !458, file: !441, line: 55)
!458 = !DIDerivedType(tag: DW_TAG_typedef, name: "int_fast32_t", file: !454, line: 71, baseType: !36)
!459 = !DIImportedEntity(tag: DW_TAG_imported_declaration, scope: !2, entity: !460, file: !441, line: 56)
!460 = !DIDerivedType(tag: DW_TAG_typedef, name: "int_fast64_t", file: !454, line: 72, baseType: !36)
!461 = !DIImportedEntity(tag: DW_TAG_imported_declaration, scope: !2, entity: !462, file: !441, line: 58)
!462 = !DIDerivedType(tag: DW_TAG_typedef, name: "int_least8_t", file: !454, line: 43, baseType: !102)
!463 = !DIImportedEntity(tag: DW_TAG_imported_declaration, scope: !2, entity: !464, file: !441, line: 59)
!464 = !DIDerivedType(tag: DW_TAG_typedef, name: "int_least16_t", file: !454, line: 44, baseType: !445)
!465 = !DIImportedEntity(tag: DW_TAG_imported_declaration, scope: !2, entity: !466, file: !441, line: 60)
!466 = !DIDerivedType(tag: DW_TAG_typedef, name: "int_least32_t", file: !454, line: 45, baseType: !11)
!467 = !DIImportedEntity(tag: DW_TAG_imported_declaration, scope: !2, entity: !468, file: !441, line: 61)
!468 = !DIDerivedType(tag: DW_TAG_typedef, name: "int_least64_t", file: !454, line: 47, baseType: !36)
!469 = !DIImportedEntity(tag: DW_TAG_imported_declaration, scope: !2, entity: !470, file: !441, line: 63)
!470 = !DIDerivedType(tag: DW_TAG_typedef, name: "intmax_t", file: !454, line: 111, baseType: !471)
!471 = !DIDerivedType(tag: DW_TAG_typedef, name: "__intmax_t", file: !98, line: 61, baseType: !36)
!472 = !DIImportedEntity(tag: DW_TAG_imported_declaration, scope: !2, entity: !473, file: !441, line: 64)
!473 = !DIDerivedType(tag: DW_TAG_typedef, name: "intptr_t", file: !454, line: 97, baseType: !36)
!474 = !DIImportedEntity(tag: DW_TAG_imported_declaration, scope: !2, entity: !475, file: !441, line: 66)
!475 = !DIDerivedType(tag: DW_TAG_typedef, name: "uint8_t", file: !476, line: 24, baseType: !477)
!476 = !DIFile(filename: "/nix/store/8hagj3k5q9vkyxnrl8431r4kpn4gf46l-glibc-2.26-131-dev/include/bits/stdint-uintn.h", directory: "/home/siddharthist/code/llvm-pretty-bc-parser/disasm-test/cpp")
!477 = !DIDerivedType(tag: DW_TAG_typedef, name: "__uint8_t", file: !98, line: 37, baseType: !478)
!478 = !DIBasicType(name: "unsigned char", size: 8, encoding: DW_ATE_unsigned_char)
!479 = !DIImportedEntity(tag: DW_TAG_imported_declaration, scope: !2, entity: !480, file: !441, line: 67)
!480 = !DIDerivedType(tag: DW_TAG_typedef, name: "uint16_t", file: !476, line: 25, baseType: !481)
!481 = !DIDerivedType(tag: DW_TAG_typedef, name: "__uint16_t", file: !98, line: 39, baseType: !100)
!482 = !DIImportedEntity(tag: DW_TAG_imported_declaration, scope: !2, entity: !483, file: !441, line: 68)
!483 = !DIDerivedType(tag: DW_TAG_typedef, name: "uint32_t", file: !476, line: 26, baseType: !484)
!484 = !DIDerivedType(tag: DW_TAG_typedef, name: "__uint32_t", file: !98, line: 41, baseType: !51)
!485 = !DIImportedEntity(tag: DW_TAG_imported_declaration, scope: !2, entity: !486, file: !441, line: 69)
!486 = !DIDerivedType(tag: DW_TAG_typedef, name: "uint64_t", file: !476, line: 27, baseType: !487)
!487 = !DIDerivedType(tag: DW_TAG_typedef, name: "__uint64_t", file: !98, line: 44, baseType: !120)
!488 = !DIImportedEntity(tag: DW_TAG_imported_declaration, scope: !2, entity: !489, file: !441, line: 71)
!489 = !DIDerivedType(tag: DW_TAG_typedef, name: "uint_fast8_t", file: !454, line: 81, baseType: !478)
!490 = !DIImportedEntity(tag: DW_TAG_imported_declaration, scope: !2, entity: !491, file: !441, line: 72)
!491 = !DIDerivedType(tag: DW_TAG_typedef, name: "uint_fast16_t", file: !454, line: 83, baseType: !120)
!492 = !DIImportedEntity(tag: DW_TAG_imported_declaration, scope: !2, entity: !493, file: !441, line: 73)
!493 = !DIDerivedType(tag: DW_TAG_typedef, name: "uint_fast32_t", file: !454, line: 84, baseType: !120)
!494 = !DIImportedEntity(tag: DW_TAG_imported_declaration, scope: !2, entity: !495, file: !441, line: 74)
!495 = !DIDerivedType(tag: DW_TAG_typedef, name: "uint_fast64_t", file: !454, line: 85, baseType: !120)
!496 = !DIImportedEntity(tag: DW_TAG_imported_declaration, scope: !2, entity: !497, file: !441, line: 76)
!497 = !DIDerivedType(tag: DW_TAG_typedef, name: "uint_least8_t", file: !454, line: 54, baseType: !478)
!498 = !DIImportedEntity(tag: DW_TAG_imported_declaration, scope: !2, entity: !499, file: !441, line: 77)
!499 = !DIDerivedType(tag: DW_TAG_typedef, name: "uint_least16_t", file: !454, line: 55, baseType: !100)
!500 = !DIImportedEntity(tag: DW_TAG_imported_declaration, scope: !2, entity: !501, file: !441, line: 78)
!501 = !DIDerivedType(tag: DW_TAG_typedef, name: "uint_least32_t", file: !454, line: 56, baseType: !51)
!502 = !DIImportedEntity(tag: DW_TAG_imported_declaration, scope: !2, entity: !503, file: !441, line: 79)
!503 = !DIDerivedType(tag: DW_TAG_typedef, name: "uint_least64_t", file: !454, line: 58, baseType: !120)
!504 = !DIImportedEntity(tag: DW_TAG_imported_declaration, scope: !2, entity: !505, file: !441, line: 81)
!505 = !DIDerivedType(tag: DW_TAG_typedef, name: "uintmax_t", file: !454, line: 112, baseType: !506)
!506 = !DIDerivedType(tag: DW_TAG_typedef, name: "__uintmax_t", file: !98, line: 62, baseType: !120)
!507 = !DIImportedEntity(tag: DW_TAG_imported_declaration, scope: !2, entity: !508, file: !441, line: 82)
!508 = !DIDerivedType(tag: DW_TAG_typedef, name: "uintptr_t", file: !454, line: 100, baseType: !120)
!509 = !DIImportedEntity(tag: DW_TAG_imported_declaration, scope: !2, entity: !510, file: !512, line: 53)
!510 = !DICompositeType(tag: DW_TAG_structure_type, name: "lconv", file: !511, line: 51, flags: DIFlagFwdDecl, identifier: "_ZTS5lconv")
!511 = !DIFile(filename: "/nix/store/8hagj3k5q9vkyxnrl8431r4kpn4gf46l-glibc-2.26-131-dev/include/locale.h", directory: "/home/siddharthist/code/llvm-pretty-bc-parser/disasm-test/cpp")
!512 = !DIFile(filename: "/nix/store/czxcii58v6d3yhrq9r667zw91192rcgk-gcc-7.3.0/include/c++/7.3.0/clocale", directory: "/home/siddharthist/code/llvm-pretty-bc-parser/disasm-test/cpp")
!513 = !DIImportedEntity(tag: DW_TAG_imported_declaration, scope: !2, entity: !514, file: !512, line: 54)
!514 = !DISubprogram(name: "setlocale", scope: !511, file: !511, line: 122, type: !515, isLocal: false, isDefinition: false, flags: DIFlagPrototyped, isOptimized: true)
!515 = !DISubroutineType(types: !516)
!516 = !{!78, !11, !167}
!517 = !DIImportedEntity(tag: DW_TAG_imported_declaration, scope: !2, entity: !518, file: !512, line: 55)
!518 = !DISubprogram(name: "localeconv", scope: !511, file: !511, line: 125, type: !519, isLocal: false, isDefinition: false, flags: DIFlagPrototyped, isOptimized: true)
!519 = !DISubroutineType(types: !520)
!520 = !{!521}
!521 = !DIDerivedType(tag: DW_TAG_pointer_type, baseType: !510, size: 64)
!522 = !DIImportedEntity(tag: DW_TAG_imported_declaration, scope: !2, entity: !523, file: !527, line: 64)
!523 = !DISubprogram(name: "isalnum", scope: !524, file: !524, line: 108, type: !525, isLocal: false, isDefinition: false, flags: DIFlagPrototyped, isOptimized: true)
!524 = !DIFile(filename: "/nix/store/8hagj3k5q9vkyxnrl8431r4kpn4gf46l-glibc-2.26-131-dev/include/ctype.h", directory: "/home/siddharthist/code/llvm-pretty-bc-parser/disasm-test/cpp")
!525 = !DISubroutineType(types: !526)
!526 = !{!11, !11}
!527 = !DIFile(filename: "/nix/store/czxcii58v6d3yhrq9r667zw91192rcgk-gcc-7.3.0/include/c++/7.3.0/cctype", directory: "/home/siddharthist/code/llvm-pretty-bc-parser/disasm-test/cpp")
!528 = !DIImportedEntity(tag: DW_TAG_imported_declaration, scope: !2, entity: !529, file: !527, line: 65)
!529 = !DISubprogram(name: "isalpha", scope: !524, file: !524, line: 109, type: !525, isLocal: false, isDefinition: false, flags: DIFlagPrototyped, isOptimized: true)
!530 = !DIImportedEntity(tag: DW_TAG_imported_declaration, scope: !2, entity: !531, file: !527, line: 66)
!531 = !DISubprogram(name: "iscntrl", scope: !524, file: !524, line: 110, type: !525, isLocal: false, isDefinition: false, flags: DIFlagPrototyped, isOptimized: true)
!532 = !DIImportedEntity(tag: DW_TAG_imported_declaration, scope: !2, entity: !533, file: !527, line: 67)
!533 = !DISubprogram(name: "isdigit", scope: !524, file: !524, line: 111, type: !525, isLocal: false, isDefinition: false, flags: DIFlagPrototyped, isOptimized: true)
!534 = !DIImportedEntity(tag: DW_TAG_imported_declaration, scope: !2, entity: !535, file: !527, line: 68)
!535 = !DISubprogram(name: "isgraph", scope: !524, file: !524, line: 113, type: !525, isLocal: false, isDefinition: false, flags: DIFlagPrototyped, isOptimized: true)
!536 = !DIImportedEntity(tag: DW_TAG_imported_declaration, scope: !2, entity: !537, file: !527, line: 69)
!537 = !DISubprogram(name: "islower", scope: !524, file: !524, line: 112, type: !525, isLocal: false, isDefinition: false, flags: DIFlagPrototyped, isOptimized: true)
!538 = !DIImportedEntity(tag: DW_TAG_imported_declaration, scope: !2, entity: !539, file: !527, line: 70)
!539 = !DISubprogram(name: "isprint", scope: !524, file: !524, line: 114, type: !525, isLocal: false, isDefinition: false, flags: DIFlagPrototyped, isOptimized: true)
!540 = !DIImportedEntity(tag: DW_TAG_imported_declaration, scope: !2, entity: !541, file: !527, line: 71)
!541 = !DISubprogram(name: "ispunct", scope: !524, file: !524, line: 115, type: !525, isLocal: false, isDefinition: false, flags: DIFlagPrototyped, isOptimized: true)
!542 = !DIImportedEntity(tag: DW_TAG_imported_declaration, scope: !2, entity: !543, file: !527, line: 72)
!543 = !DISubprogram(name: "isspace", scope: !524, file: !524, line: 116, type: !525, isLocal: false, isDefinition: false, flags: DIFlagPrototyped, isOptimized: true)
!544 = !DIImportedEntity(tag: DW_TAG_imported_declaration, scope: !2, entity: !545, file: !527, line: 73)
!545 = !DISubprogram(name: "isupper", scope: !524, file: !524, line: 117, type: !525, isLocal: false, isDefinition: false, flags: DIFlagPrototyped, isOptimized: true)
!546 = !DIImportedEntity(tag: DW_TAG_imported_declaration, scope: !2, entity: !547, file: !527, line: 74)
!547 = !DISubprogram(name: "isxdigit", scope: !524, file: !524, line: 118, type: !525, isLocal: false, isDefinition: false, flags: DIFlagPrototyped, isOptimized: true)
!548 = !DIImportedEntity(tag: DW_TAG_imported_declaration, scope: !2, entity: !549, file: !527, line: 75)
!549 = !DISubprogram(name: "tolower", scope: !524, file: !524, line: 122, type: !525, isLocal: false, isDefinition: false, flags: DIFlagPrototyped, isOptimized: true)
!550 = !DIImportedEntity(tag: DW_TAG_imported_declaration, scope: !2, entity: !551, file: !527, line: 76)
!551 = !DISubprogram(name: "toupper", scope: !524, file: !524, line: 125, type: !525, isLocal: false, isDefinition: false, flags: DIFlagPrototyped, isOptimized: true)
!552 = !DIImportedEntity(tag: DW_TAG_imported_declaration, scope: !2, entity: !553, file: !527, line: 87)
!553 = !DISubprogram(name: "isblank", scope: !524, file: !524, line: 130, type: !525, isLocal: false, isDefinition: false, flags: DIFlagPrototyped, isOptimized: true)
!554 = !DIImportedEntity(tag: DW_TAG_imported_declaration, scope: !350, entity: !555, file: !556, line: 44)
!555 = !DIDerivedType(tag: DW_TAG_typedef, name: "size_t", scope: !2, file: !35, line: 231, baseType: !120)
!556 = !DIFile(filename: "/nix/store/czxcii58v6d3yhrq9r667zw91192rcgk-gcc-7.3.0/include/c++/7.3.0/ext/new_allocator.h", directory: "/home/siddharthist/code/llvm-pretty-bc-parser/disasm-test/cpp")
!557 = !DIImportedEntity(tag: DW_TAG_imported_declaration, scope: !350, entity: !34, file: !556, line: 45)
!558 = !DIImportedEntity(tag: DW_TAG_imported_declaration, scope: !2, entity: !559, file: !561, line: 52)
!559 = !DISubprogram(name: "abs", scope: !560, file: !560, line: 722, type: !525, isLocal: false, isDefinition: false, flags: DIFlagPrototyped, isOptimized: true)
!560 = !DIFile(filename: "/nix/store/8hagj3k5q9vkyxnrl8431r4kpn4gf46l-glibc-2.26-131-dev/include/stdlib.h", directory: "/home/siddharthist/code/llvm-pretty-bc-parser/disasm-test/cpp")
!561 = !DIFile(filename: "/nix/store/czxcii58v6d3yhrq9r667zw91192rcgk-gcc-7.3.0/include/c++/7.3.0/bits/std_abs.h", directory: "/home/siddharthist/code/llvm-pretty-bc-parser/disasm-test/cpp")
!562 = !DIImportedEntity(tag: DW_TAG_imported_declaration, scope: !2, entity: !563, file: !565, line: 124)
!563 = !DIDerivedType(tag: DW_TAG_typedef, name: "div_t", file: !560, line: 62, baseType: !564)
!564 = !DICompositeType(tag: DW_TAG_structure_type, file: !560, line: 58, flags: DIFlagFwdDecl, identifier: "_ZTS5div_t")
!565 = !DIFile(filename: "/nix/store/czxcii58v6d3yhrq9r667zw91192rcgk-gcc-7.3.0/include/c++/7.3.0/cstdlib", directory: "/home/siddharthist/code/llvm-pretty-bc-parser/disasm-test/cpp")
!566 = !DIImportedEntity(tag: DW_TAG_imported_declaration, scope: !2, entity: !567, file: !565, line: 125)
!567 = !DIDerivedType(tag: DW_TAG_typedef, name: "ldiv_t", file: !560, line: 70, baseType: !568)
!568 = distinct !DICompositeType(tag: DW_TAG_structure_type, file: !560, line: 66, size: 128, elements: !569, identifier: "_ZTS6ldiv_t")
!569 = !{!570, !571}
!570 = !DIDerivedType(tag: DW_TAG_member, name: "quot", scope: !568, file: !560, line: 68, baseType: !36, size: 64)
!571 = !DIDerivedType(tag: DW_TAG_member, name: "rem", scope: !568, file: !560, line: 69, baseType: !36, size: 64, offset: 64)
!572 = !DIImportedEntity(tag: DW_TAG_imported_declaration, scope: !2, entity: !573, file: !565, line: 127)
!573 = !DISubprogram(name: "abort", scope: !560, file: !560, line: 473, type: !574, isLocal: false, isDefinition: false, flags: DIFlagPrototyped | DIFlagNoReturn, isOptimized: true)
!574 = !DISubroutineType(types: !575)
!575 = !{null}
!576 = !DIImportedEntity(tag: DW_TAG_imported_declaration, scope: !2, entity: !577, file: !565, line: 128)
!577 = !DISubprogram(name: "atexit", scope: !560, file: !560, line: 477, type: !578, isLocal: false, isDefinition: false, flags: DIFlagPrototyped, isOptimized: true)
!578 = !DISubroutineType(types: !579)
!579 = !{!11, !580}
!580 = !DIDerivedType(tag: DW_TAG_pointer_type, baseType: !574, size: 64)
!581 = !DIImportedEntity(tag: DW_TAG_imported_declaration, scope: !2, entity: !582, file: !565, line: 131)
!582 = !DISubprogram(name: "at_quick_exit", scope: !560, file: !560, line: 482, type: !578, isLocal: false, isDefinition: false, flags: DIFlagPrototyped, isOptimized: true)
!583 = !DIImportedEntity(tag: DW_TAG_imported_declaration, scope: !2, entity: !584, file: !565, line: 134)
!584 = !DISubprogram(name: "atof", scope: !585, file: !585, line: 25, type: !586, isLocal: false, isDefinition: false, flags: DIFlagPrototyped, isOptimized: true)
!585 = !DIFile(filename: "/nix/store/8hagj3k5q9vkyxnrl8431r4kpn4gf46l-glibc-2.26-131-dev/include/bits/stdlib-float.h", directory: "/home/siddharthist/code/llvm-pretty-bc-parser/disasm-test/cpp")
!586 = !DISubroutineType(types: !587)
!587 = !{!287, !167}
!588 = !DIImportedEntity(tag: DW_TAG_imported_declaration, scope: !2, entity: !589, file: !565, line: 135)
!589 = !DISubprogram(name: "atoi", scope: !560, file: !560, line: 246, type: !590, isLocal: false, isDefinition: false, flags: DIFlagPrototyped, isOptimized: true)
!590 = !DISubroutineType(types: !591)
!591 = !{!11, !167}
!592 = !DIImportedEntity(tag: DW_TAG_imported_declaration, scope: !2, entity: !593, file: !565, line: 136)
!593 = !DISubprogram(name: "atol", scope: !560, file: !560, line: 251, type: !594, isLocal: false, isDefinition: false, flags: DIFlagPrototyped, isOptimized: true)
!594 = !DISubroutineType(types: !595)
!595 = !{!36, !167}
!596 = !DIImportedEntity(tag: DW_TAG_imported_declaration, scope: !2, entity: !597, file: !565, line: 137)
!597 = !DISubprogram(name: "bsearch", scope: !598, file: !598, line: 20, type: !599, isLocal: false, isDefinition: false, flags: DIFlagPrototyped, isOptimized: true)
!598 = !DIFile(filename: "/nix/store/8hagj3k5q9vkyxnrl8431r4kpn4gf46l-glibc-2.26-131-dev/include/bits/stdlib-bsearch.h", directory: "/home/siddharthist/code/llvm-pretty-bc-parser/disasm-test/cpp")
!599 = !DISubroutineType(types: !600)
!600 = !{!113, !601, !601, !118, !118, !603}
!601 = !DIDerivedType(tag: DW_TAG_pointer_type, baseType: !602, size: 64)
!602 = !DIDerivedType(tag: DW_TAG_const_type, baseType: null)
!603 = !DIDerivedType(tag: DW_TAG_typedef, name: "__compar_fn_t", file: !560, line: 690, baseType: !604)
!604 = !DIDerivedType(tag: DW_TAG_pointer_type, baseType: !605, size: 64)
!605 = !DISubroutineType(types: !606)
!606 = !{!11, !601, !601}
!607 = !DIImportedEntity(tag: DW_TAG_imported_declaration, scope: !2, entity: !608, file: !565, line: 138)
!608 = !DISubprogram(name: "calloc", scope: !560, file: !560, line: 426, type: !609, isLocal: false, isDefinition: false, flags: DIFlagPrototyped, isOptimized: true)
!609 = !DISubroutineType(types: !610)
!610 = !{!113, !118, !118}
!611 = !DIImportedEntity(tag: DW_TAG_imported_declaration, scope: !2, entity: !612, file: !565, line: 139)
!612 = !DISubprogram(name: "div", scope: !560, file: !560, line: 734, type: !613, isLocal: false, isDefinition: false, flags: DIFlagPrototyped, isOptimized: true)
!613 = !DISubroutineType(types: !614)
!614 = !{!563, !11, !11}
!615 = !DIImportedEntity(tag: DW_TAG_imported_declaration, scope: !2, entity: !616, file: !565, line: 140)
!616 = !DISubprogram(name: "exit", scope: !560, file: !560, line: 499, type: !617, isLocal: false, isDefinition: false, flags: DIFlagPrototyped | DIFlagNoReturn, isOptimized: true)
!617 = !DISubroutineType(types: !618)
!618 = !{null, !11}
!619 = !DIImportedEntity(tag: DW_TAG_imported_declaration, scope: !2, entity: !620, file: !565, line: 141)
!620 = !DISubprogram(name: "free", scope: !560, file: !560, line: 448, type: !621, isLocal: false, isDefinition: false, flags: DIFlagPrototyped, isOptimized: true)
!621 = !DISubroutineType(types: !622)
!622 = !{null, !113}
!623 = !DIImportedEntity(tag: DW_TAG_imported_declaration, scope: !2, entity: !624, file: !565, line: 142)
!624 = !DISubprogram(name: "getenv", scope: !560, file: !560, line: 516, type: !625, isLocal: false, isDefinition: false, flags: DIFlagPrototyped, isOptimized: true)
!625 = !DISubroutineType(types: !626)
!626 = !{!78, !167}
!627 = !DIImportedEntity(tag: DW_TAG_imported_declaration, scope: !2, entity: !628, file: !565, line: 143)
!628 = !DISubprogram(name: "labs", scope: !560, file: !560, line: 723, type: !629, isLocal: false, isDefinition: false, flags: DIFlagPrototyped, isOptimized: true)
!629 = !DISubroutineType(types: !630)
!630 = !{!36, !36}
!631 = !DIImportedEntity(tag: DW_TAG_imported_declaration, scope: !2, entity: !632, file: !565, line: 144)
!632 = !DISubprogram(name: "ldiv", scope: !560, file: !560, line: 736, type: !633, isLocal: false, isDefinition: false, flags: DIFlagPrototyped, isOptimized: true)
!633 = !DISubroutineType(types: !634)
!634 = !{!567, !36, !36}
!635 = !DIImportedEntity(tag: DW_TAG_imported_declaration, scope: !2, entity: !636, file: !565, line: 145)
!636 = !DISubprogram(name: "malloc", scope: !560, file: !560, line: 424, type: !637, isLocal: false, isDefinition: false, flags: DIFlagPrototyped, isOptimized: true)
!637 = !DISubroutineType(types: !638)
!638 = !{!113, !118}
!639 = !DIImportedEntity(tag: DW_TAG_imported_declaration, scope: !2, entity: !640, file: !565, line: 147)
!640 = !DISubprogram(name: "mblen", scope: !560, file: !560, line: 804, type: !641, isLocal: false, isDefinition: false, flags: DIFlagPrototyped, isOptimized: true)
!641 = !DISubroutineType(types: !642)
!642 = !{!11, !167, !118}
!643 = !DIImportedEntity(tag: DW_TAG_imported_declaration, scope: !2, entity: !644, file: !565, line: 148)
!644 = !DISubprogram(name: "mbstowcs", scope: !645, file: !645, line: 113, type: !646, isLocal: false, isDefinition: false, flags: DIFlagPrototyped, isOptimized: true)
!645 = !DIFile(filename: "/nix/store/8hagj3k5q9vkyxnrl8431r4kpn4gf46l-glibc-2.26-131-dev/include/bits/stdlib.h", directory: "/home/siddharthist/code/llvm-pretty-bc-parser/disasm-test/cpp")
!646 = !DISubroutineType(types: !647)
!647 = !{!118, !133, !166, !118}
!648 = !DIImportedEntity(tag: DW_TAG_imported_declaration, scope: !2, entity: !649, file: !565, line: 149)
!649 = !DISubprogram(name: "mbtowc", scope: !560, file: !560, line: 807, type: !650, isLocal: false, isDefinition: false, flags: DIFlagPrototyped, isOptimized: true)
!650 = !DISubroutineType(types: !651)
!651 = !{!11, !133, !166, !118}
!652 = !DIImportedEntity(tag: DW_TAG_imported_declaration, scope: !2, entity: !653, file: !565, line: 151)
!653 = !DISubprogram(name: "qsort", scope: !560, file: !560, line: 712, type: !654, isLocal: false, isDefinition: false, flags: DIFlagPrototyped, isOptimized: true)
!654 = !DISubroutineType(types: !655)
!655 = !{null, !113, !118, !118, !603}
!656 = !DIImportedEntity(tag: DW_TAG_imported_declaration, scope: !2, entity: !657, file: !565, line: 154)
!657 = !DISubprogram(name: "quick_exit", scope: !560, file: !560, line: 505, type: !617, isLocal: false, isDefinition: false, flags: DIFlagPrototyped | DIFlagNoReturn, isOptimized: true)
!658 = !DIImportedEntity(tag: DW_TAG_imported_declaration, scope: !2, entity: !659, file: !565, line: 157)
!659 = !DISubprogram(name: "rand", scope: !560, file: !560, line: 338, type: !660, isLocal: false, isDefinition: false, flags: DIFlagPrototyped, isOptimized: true)
!660 = !DISubroutineType(types: !661)
!661 = !{!11}
!662 = !DIImportedEntity(tag: DW_TAG_imported_declaration, scope: !2, entity: !663, file: !565, line: 158)
!663 = !DISubprogram(name: "realloc", scope: !560, file: !560, line: 434, type: !664, isLocal: false, isDefinition: false, flags: DIFlagPrototyped, isOptimized: true)
!664 = !DISubroutineType(types: !665)
!665 = !{!113, !113, !118}
!666 = !DIImportedEntity(tag: DW_TAG_imported_declaration, scope: !2, entity: !667, file: !565, line: 159)
!667 = !DISubprogram(name: "srand", scope: !560, file: !560, line: 340, type: !668, isLocal: false, isDefinition: false, flags: DIFlagPrototyped, isOptimized: true)
!668 = !DISubroutineType(types: !669)
!669 = !{null, !51}
!670 = !DIImportedEntity(tag: DW_TAG_imported_declaration, scope: !2, entity: !671, file: !565, line: 160)
!671 = !DISubprogram(name: "strtod", scope: !560, file: !560, line: 117, type: !672, isLocal: false, isDefinition: false, flags: DIFlagPrototyped, isOptimized: true)
!672 = !DISubroutineType(types: !673)
!673 = !{!287, !166, !674}
!674 = !DIDerivedType(tag: DW_TAG_restrict_type, baseType: !675)
!675 = !DIDerivedType(tag: DW_TAG_pointer_type, baseType: !78, size: 64)
!676 = !DIImportedEntity(tag: DW_TAG_imported_declaration, scope: !2, entity: !677, file: !565, line: 161)
!677 = !DISubprogram(name: "strtol", scope: !560, file: !560, line: 139, type: !678, isLocal: false, isDefinition: false, flags: DIFlagPrototyped, isOptimized: true)
!678 = !DISubroutineType(types: !679)
!679 = !{!36, !166, !674, !11}
!680 = !DIImportedEntity(tag: DW_TAG_imported_declaration, scope: !2, entity: !681, file: !565, line: 162)
!681 = !DISubprogram(name: "strtoul", scope: !560, file: !560, line: 143, type: !682, isLocal: false, isDefinition: false, flags: DIFlagPrototyped, isOptimized: true)
!682 = !DISubroutineType(types: !683)
!683 = !{!120, !166, !674, !11}
!684 = !DIImportedEntity(tag: DW_TAG_imported_declaration, scope: !2, entity: !685, file: !565, line: 163)
!685 = !DISubprogram(name: "system", scope: !560, file: !560, line: 666, type: !590, isLocal: false, isDefinition: false, flags: DIFlagPrototyped, isOptimized: true)
!686 = !DIImportedEntity(tag: DW_TAG_imported_declaration, scope: !2, entity: !687, file: !565, line: 165)
!687 = !DISubprogram(name: "wcstombs", scope: !645, file: !645, line: 144, type: !688, isLocal: false, isDefinition: false, flags: DIFlagPrototyped, isOptimized: true)
!688 = !DISubroutineType(types: !689)
!689 = !{!118, !236, !143, !118}
!690 = !DIImportedEntity(tag: DW_TAG_imported_declaration, scope: !2, entity: !691, file: !565, line: 166)
!691 = !DISubprogram(name: "wctomb", scope: !645, file: !645, line: 83, type: !692, isLocal: false, isDefinition: false, flags: DIFlagPrototyped, isOptimized: true)
!692 = !DISubroutineType(types: !693)
!693 = !{!11, !78, !132}
!694 = !DIImportedEntity(tag: DW_TAG_imported_declaration, scope: !350, entity: !695, file: !565, line: 194)
!695 = !DIDerivedType(tag: DW_TAG_typedef, name: "lldiv_t", file: !560, line: 80, baseType: !696)
!696 = distinct !DICompositeType(tag: DW_TAG_structure_type, file: !560, line: 76, size: 128, elements: !697, identifier: "_ZTS7lldiv_t")
!697 = !{!698, !699}
!698 = !DIDerivedType(tag: DW_TAG_member, name: "quot", scope: !696, file: !560, line: 78, baseType: !359, size: 64)
!699 = !DIDerivedType(tag: DW_TAG_member, name: "rem", scope: !696, file: !560, line: 79, baseType: !359, size: 64, offset: 64)
!700 = !DIImportedEntity(tag: DW_TAG_imported_declaration, scope: !350, entity: !701, file: !565, line: 200)
!701 = !DISubprogram(name: "_Exit", scope: !560, file: !560, line: 511, type: !617, isLocal: false, isDefinition: false, flags: DIFlagPrototyped | DIFlagNoReturn, isOptimized: true)
!702 = !DIImportedEntity(tag: DW_TAG_imported_declaration, scope: !350, entity: !703, file: !565, line: 204)
!703 = !DISubprogram(name: "llabs", scope: !560, file: !560, line: 726, type: !704, isLocal: false, isDefinition: false, flags: DIFlagPrototyped, isOptimized: true)
!704 = !DISubroutineType(types: !705)
!705 = !{!359, !359}
!706 = !DIImportedEntity(tag: DW_TAG_imported_declaration, scope: !350, entity: !707, file: !565, line: 210)
!707 = !DISubprogram(name: "lldiv", scope: !560, file: !560, line: 740, type: !708, isLocal: false, isDefinition: false, flags: DIFlagPrototyped, isOptimized: true)
!708 = !DISubroutineType(types: !709)
!709 = !{!695, !359, !359}
!710 = !DIImportedEntity(tag: DW_TAG_imported_declaration, scope: !350, entity: !711, file: !565, line: 221)
!711 = !DISubprogram(name: "atoll", scope: !560, file: !560, line: 258, type: !712, isLocal: false, isDefinition: false, flags: DIFlagPrototyped, isOptimized: true)
!712 = !DISubroutineType(types: !713)
!713 = !{!359, !167}
!714 = !DIImportedEntity(tag: DW_TAG_imported_declaration, scope: !350, entity: !715, file: !565, line: 222)
!715 = !DISubprogram(name: "strtoll", scope: !560, file: !560, line: 163, type: !716, isLocal: false, isDefinition: false, flags: DIFlagPrototyped, isOptimized: true)
!716 = !DISubroutineType(types: !717)
!717 = !{!359, !166, !674, !11}
!718 = !DIImportedEntity(tag: DW_TAG_imported_declaration, scope: !350, entity: !719, file: !565, line: 223)
!719 = !DISubprogram(name: "strtoull", scope: !560, file: !560, line: 168, type: !720, isLocal: false, isDefinition: false, flags: DIFlagPrototyped, isOptimized: true)
!720 = !DISubroutineType(types: !721)
!721 = !{!364, !166, !674, !11}
!722 = !DIImportedEntity(tag: DW_TAG_imported_declaration, scope: !350, entity: !723, file: !565, line: 225)
!723 = !DISubprogram(name: "strtof", scope: !560, file: !560, line: 123, type: !724, isLocal: false, isDefinition: false, flags: DIFlagPrototyped, isOptimized: true)
!724 = !DISubroutineType(types: !725)
!725 = !{!294, !166, !674}
!726 = !DIImportedEntity(tag: DW_TAG_imported_declaration, scope: !350, entity: !727, file: !565, line: 226)
!727 = !DISubprogram(name: "strtold", scope: !560, file: !560, line: 126, type: !728, isLocal: false, isDefinition: false, flags: DIFlagPrototyped, isOptimized: true)
!728 = !DISubroutineType(types: !729)
!729 = !{!354, !166, !674}
!730 = !DIImportedEntity(tag: DW_TAG_imported_declaration, scope: !2, entity: !695, file: !565, line: 234)
!731 = !DIImportedEntity(tag: DW_TAG_imported_declaration, scope: !2, entity: !701, file: !565, line: 236)
!732 = !DIImportedEntity(tag: DW_TAG_imported_declaration, scope: !2, entity: !703, file: !565, line: 238)
!733 = !DIImportedEntity(tag: DW_TAG_imported_declaration, scope: !2, entity: !734, file: !565, line: 239)
!734 = !DISubprogram(name: "div", linkageName: "_ZN9__gnu_cxx3divExx", scope: !350, file: !565, line: 207, type: !708, isLocal: false, isDefinition: false, flags: DIFlagPrototyped, isOptimized: true)
!735 = !DIImportedEntity(tag: DW_TAG_imported_declaration, scope: !2, entity: !707, file: !565, line: 240)
!736 = !DIImportedEntity(tag: DW_TAG_imported_declaration, scope: !2, entity: !711, file: !565, line: 242)
!737 = !DIImportedEntity(tag: DW_TAG_imported_declaration, scope: !2, entity: !723, file: !565, line: 243)
!738 = !DIImportedEntity(tag: DW_TAG_imported_declaration, scope: !2, entity: !715, file: !565, line: 244)
!739 = !DIImportedEntity(tag: DW_TAG_imported_declaration, scope: !2, entity: !719, file: !565, line: 245)
!740 = !DIImportedEntity(tag: DW_TAG_imported_declaration, scope: !2, entity: !727, file: !565, line: 246)
!741 = !DIImportedEntity(tag: DW_TAG_imported_declaration, scope: !2, entity: !742, file: !744, line: 98)
!742 = !DIDerivedType(tag: DW_TAG_typedef, name: "FILE", file: !743, line: 7, baseType: !73)
!743 = !DIFile(filename: "/nix/store/8hagj3k5q9vkyxnrl8431r4kpn4gf46l-glibc-2.26-131-dev/include/bits/types/FILE.h", directory: "/home/siddharthist/code/llvm-pretty-bc-parser/disasm-test/cpp")
!744 = !DIFile(filename: "/nix/store/czxcii58v6d3yhrq9r667zw91192rcgk-gcc-7.3.0/include/c++/7.3.0/cstdio", directory: "/home/siddharthist/code/llvm-pretty-bc-parser/disasm-test/cpp")
!745 = !DIImportedEntity(tag: DW_TAG_imported_declaration, scope: !2, entity: !746, file: !744, line: 99)
!746 = !DIDerivedType(tag: DW_TAG_typedef, name: "fpos_t", file: !747, line: 78, baseType: !748)
!747 = !DIFile(filename: "/nix/store/8hagj3k5q9vkyxnrl8431r4kpn4gf46l-glibc-2.26-131-dev/include/stdio.h", directory: "/home/siddharthist/code/llvm-pretty-bc-parser/disasm-test/cpp")
!748 = !DIDerivedType(tag: DW_TAG_typedef, name: "_G_fpos_t", file: !749, line: 26, baseType: !750)
!749 = !DIFile(filename: "/nix/store/8hagj3k5q9vkyxnrl8431r4kpn4gf46l-glibc-2.26-131-dev/include/_G_config.h", directory: "/home/siddharthist/code/llvm-pretty-bc-parser/disasm-test/cpp")
!750 = !DICompositeType(tag: DW_TAG_structure_type, file: !749, line: 22, flags: DIFlagFwdDecl, identifier: "_ZTS9_G_fpos_t")
!751 = !DIImportedEntity(tag: DW_TAG_imported_declaration, scope: !2, entity: !752, file: !744, line: 101)
!752 = !DISubprogram(name: "clearerr", scope: !747, file: !747, line: 757, type: !753, isLocal: false, isDefinition: false, flags: DIFlagPrototyped, isOptimized: true)
!753 = !DISubroutineType(types: !754)
!754 = !{null, !755}
!755 = !DIDerivedType(tag: DW_TAG_pointer_type, baseType: !742, size: 64)
!756 = !DIImportedEntity(tag: DW_TAG_imported_declaration, scope: !2, entity: !757, file: !744, line: 102)
!757 = !DISubprogram(name: "fclose", scope: !747, file: !747, line: 199, type: !758, isLocal: false, isDefinition: false, flags: DIFlagPrototyped, isOptimized: true)
!758 = !DISubroutineType(types: !759)
!759 = !{!11, !755}
!760 = !DIImportedEntity(tag: DW_TAG_imported_declaration, scope: !2, entity: !761, file: !744, line: 103)
!761 = !DISubprogram(name: "feof", scope: !747, file: !747, line: 759, type: !758, isLocal: false, isDefinition: false, flags: DIFlagPrototyped, isOptimized: true)
!762 = !DIImportedEntity(tag: DW_TAG_imported_declaration, scope: !2, entity: !763, file: !744, line: 104)
!763 = !DISubprogram(name: "ferror", scope: !747, file: !747, line: 761, type: !758, isLocal: false, isDefinition: false, flags: DIFlagPrototyped, isOptimized: true)
!764 = !DIImportedEntity(tag: DW_TAG_imported_declaration, scope: !2, entity: !765, file: !744, line: 105)
!765 = !DISubprogram(name: "fflush", scope: !747, file: !747, line: 204, type: !758, isLocal: false, isDefinition: false, flags: DIFlagPrototyped, isOptimized: true)
!766 = !DIImportedEntity(tag: DW_TAG_imported_declaration, scope: !2, entity: !767, file: !744, line: 106)
!767 = !DISubprogram(name: "fgetc", scope: !747, file: !747, line: 477, type: !758, isLocal: false, isDefinition: false, flags: DIFlagPrototyped, isOptimized: true)
!768 = !DIImportedEntity(tag: DW_TAG_imported_declaration, scope: !2, entity: !769, file: !744, line: 107)
!769 = !DISubprogram(name: "fgetpos", scope: !747, file: !747, line: 731, type: !770, isLocal: false, isDefinition: false, flags: DIFlagPrototyped, isOptimized: true)
!770 = !DISubroutineType(types: !771)
!771 = !{!11, !772, !773}
!772 = !DIDerivedType(tag: DW_TAG_restrict_type, baseType: !755)
!773 = !DIDerivedType(tag: DW_TAG_restrict_type, baseType: !774)
!774 = !DIDerivedType(tag: DW_TAG_pointer_type, baseType: !746, size: 64)
!775 = !DIImportedEntity(tag: DW_TAG_imported_declaration, scope: !2, entity: !776, file: !744, line: 108)
!776 = !DISubprogram(name: "fgets", scope: !777, file: !777, line: 252, type: !778, isLocal: false, isDefinition: false, flags: DIFlagPrototyped, isOptimized: true)
!777 = !DIFile(filename: "/nix/store/8hagj3k5q9vkyxnrl8431r4kpn4gf46l-glibc-2.26-131-dev/include/bits/stdio2.h", directory: "/home/siddharthist/code/llvm-pretty-bc-parser/disasm-test/cpp")
!778 = !DISubroutineType(types: !779)
!779 = !{!78, !236, !11, !772}
!780 = !DIImportedEntity(tag: DW_TAG_imported_declaration, scope: !2, entity: !781, file: !744, line: 109)
!781 = !DISubprogram(name: "fopen", scope: !747, file: !747, line: 232, type: !782, isLocal: false, isDefinition: false, flags: DIFlagPrototyped, isOptimized: true)
!782 = !DISubroutineType(types: !783)
!783 = !{!755, !166, !166}
!784 = !DIImportedEntity(tag: DW_TAG_imported_declaration, scope: !2, entity: !785, file: !744, line: 110)
!785 = !DISubprogram(name: "fprintf", scope: !747, file: !747, line: 312, type: !786, isLocal: false, isDefinition: false, flags: DIFlagPrototyped, isOptimized: true)
!786 = !DISubroutineType(types: !787)
!787 = !{!11, !772, !166, null}
!788 = !DIImportedEntity(tag: DW_TAG_imported_declaration, scope: !2, entity: !789, file: !744, line: 111)
!789 = !DISubprogram(name: "fputc", scope: !747, file: !747, line: 517, type: !790, isLocal: false, isDefinition: false, flags: DIFlagPrototyped, isOptimized: true)
!790 = !DISubroutineType(types: !791)
!791 = !{!11, !11, !755}
!792 = !DIImportedEntity(tag: DW_TAG_imported_declaration, scope: !2, entity: !793, file: !744, line: 112)
!793 = !DISubprogram(name: "fputs", scope: !747, file: !747, line: 626, type: !794, isLocal: false, isDefinition: false, flags: DIFlagPrototyped, isOptimized: true)
!794 = !DISubroutineType(types: !795)
!795 = !{!11, !166, !772}
!796 = !DIImportedEntity(tag: DW_TAG_imported_declaration, scope: !2, entity: !797, file: !744, line: 113)
!797 = !DISubprogram(name: "fread", scope: !777, file: !777, line: 281, type: !798, isLocal: false, isDefinition: false, flags: DIFlagPrototyped, isOptimized: true)
!798 = !DISubroutineType(types: !799)
!799 = !{!118, !800, !118, !118, !772}
!800 = !DIDerivedType(tag: DW_TAG_restrict_type, baseType: !113)
!801 = !DIImportedEntity(tag: DW_TAG_imported_declaration, scope: !2, entity: !802, file: !744, line: 114)
!802 = !DISubprogram(name: "freopen", scope: !747, file: !747, line: 238, type: !803, isLocal: false, isDefinition: false, flags: DIFlagPrototyped, isOptimized: true)
!803 = !DISubroutineType(types: !804)
!804 = !{!755, !166, !166, !772}
!805 = !DIImportedEntity(tag: DW_TAG_imported_declaration, scope: !2, entity: !806, file: !744, line: 115)
!806 = !DISubprogram(name: "fscanf", scope: !747, file: !747, line: 377, type: !786, isLocal: false, isDefinition: false, flags: DIFlagPrototyped, isOptimized: true)
!807 = !DIImportedEntity(tag: DW_TAG_imported_declaration, scope: !2, entity: !808, file: !744, line: 116)
!808 = !DISubprogram(name: "fseek", scope: !747, file: !747, line: 684, type: !809, isLocal: false, isDefinition: false, flags: DIFlagPrototyped, isOptimized: true)
!809 = !DISubroutineType(types: !810)
!810 = !{!11, !755, !36, !11}
!811 = !DIImportedEntity(tag: DW_TAG_imported_declaration, scope: !2, entity: !812, file: !744, line: 117)
!812 = !DISubprogram(name: "fsetpos", scope: !747, file: !747, line: 736, type: !813, isLocal: false, isDefinition: false, flags: DIFlagPrototyped, isOptimized: true)
!813 = !DISubroutineType(types: !814)
!814 = !{!11, !755, !815}
!815 = !DIDerivedType(tag: DW_TAG_pointer_type, baseType: !816, size: 64)
!816 = !DIDerivedType(tag: DW_TAG_const_type, baseType: !746)
!817 = !DIImportedEntity(tag: DW_TAG_imported_declaration, scope: !2, entity: !818, file: !744, line: 118)
!818 = !DISubprogram(name: "ftell", scope: !747, file: !747, line: 689, type: !819, isLocal: false, isDefinition: false, flags: DIFlagPrototyped, isOptimized: true)
!819 = !DISubroutineType(types: !820)
!820 = !{!36, !755}
!821 = !DIImportedEntity(tag: DW_TAG_imported_declaration, scope: !2, entity: !822, file: !744, line: 119)
!822 = !DISubprogram(name: "fwrite", scope: !747, file: !747, line: 652, type: !823, isLocal: false, isDefinition: false, flags: DIFlagPrototyped, isOptimized: true)
!823 = !DISubroutineType(types: !824)
!824 = !{!118, !825, !118, !118, !772}
!825 = !DIDerivedType(tag: DW_TAG_restrict_type, baseType: !601)
!826 = !DIImportedEntity(tag: DW_TAG_imported_declaration, scope: !2, entity: !827, file: !744, line: 120)
!827 = !DISubprogram(name: "getc", scope: !747, file: !747, line: 478, type: !758, isLocal: false, isDefinition: false, flags: DIFlagPrototyped, isOptimized: true)
!828 = !DIImportedEntity(tag: DW_TAG_imported_declaration, scope: !2, entity: !829, file: !744, line: 121)
!829 = !DISubprogram(name: "getchar", scope: !830, file: !830, line: 44, type: !660, isLocal: false, isDefinition: false, flags: DIFlagPrototyped, isOptimized: true)
!830 = !DIFile(filename: "/nix/store/8hagj3k5q9vkyxnrl8431r4kpn4gf46l-glibc-2.26-131-dev/include/bits/stdio.h", directory: "/home/siddharthist/code/llvm-pretty-bc-parser/disasm-test/cpp")
!831 = !DIImportedEntity(tag: DW_TAG_imported_declaration, scope: !2, entity: !832, file: !744, line: 126)
!832 = !DISubprogram(name: "perror", scope: !747, file: !747, line: 775, type: !833, isLocal: false, isDefinition: false, flags: DIFlagPrototyped, isOptimized: true)
!833 = !DISubroutineType(types: !834)
!834 = !{null, !167}
!835 = !DIImportedEntity(tag: DW_TAG_imported_declaration, scope: !2, entity: !836, file: !744, line: 127)
!836 = !DISubprogram(name: "printf", scope: !747, file: !747, line: 318, type: !837, isLocal: false, isDefinition: false, flags: DIFlagPrototyped, isOptimized: true)
!837 = !DISubroutineType(types: !838)
!838 = !{!11, !166, null}
!839 = !DIImportedEntity(tag: DW_TAG_imported_declaration, scope: !2, entity: !840, file: !744, line: 128)
!840 = !DISubprogram(name: "putc", scope: !747, file: !747, line: 518, type: !790, isLocal: false, isDefinition: false, flags: DIFlagPrototyped, isOptimized: true)
!841 = !DIImportedEntity(tag: DW_TAG_imported_declaration, scope: !2, entity: !842, file: !744, line: 129)
!842 = !DISubprogram(name: "putchar", scope: !830, file: !830, line: 79, type: !525, isLocal: false, isDefinition: false, flags: DIFlagPrototyped, isOptimized: true)
!843 = !DIImportedEntity(tag: DW_TAG_imported_declaration, scope: !2, entity: !844, file: !744, line: 130)
!844 = !DISubprogram(name: "puts", scope: !747, file: !747, line: 632, type: !590, isLocal: false, isDefinition: false, flags: DIFlagPrototyped, isOptimized: true)
!845 = !DIImportedEntity(tag: DW_TAG_imported_declaration, scope: !2, entity: !846, file: !744, line: 131)
!846 = !DISubprogram(name: "remove", scope: !747, file: !747, line: 144, type: !590, isLocal: false, isDefinition: false, flags: DIFlagPrototyped, isOptimized: true)
!847 = !DIImportedEntity(tag: DW_TAG_imported_declaration, scope: !2, entity: !848, file: !744, line: 132)
!848 = !DISubprogram(name: "rename", scope: !747, file: !747, line: 146, type: !849, isLocal: false, isDefinition: false, flags: DIFlagPrototyped, isOptimized: true)
!849 = !DISubroutineType(types: !850)
!850 = !{!11, !167, !167}
!851 = !DIImportedEntity(tag: DW_TAG_imported_declaration, scope: !2, entity: !852, file: !744, line: 133)
!852 = !DISubprogram(name: "rewind", scope: !747, file: !747, line: 694, type: !753, isLocal: false, isDefinition: false, flags: DIFlagPrototyped, isOptimized: true)
!853 = !DIImportedEntity(tag: DW_TAG_imported_declaration, scope: !2, entity: !854, file: !744, line: 134)
!854 = !DISubprogram(name: "scanf", scope: !747, file: !747, line: 383, type: !837, isLocal: false, isDefinition: false, flags: DIFlagPrototyped, isOptimized: true)
!855 = !DIImportedEntity(tag: DW_TAG_imported_declaration, scope: !2, entity: !856, file: !744, line: 135)
!856 = !DISubprogram(name: "setbuf", scope: !747, file: !747, line: 290, type: !857, isLocal: false, isDefinition: false, flags: DIFlagPrototyped, isOptimized: true)
!857 = !DISubroutineType(types: !858)
!858 = !{null, !772, !236}
!859 = !DIImportedEntity(tag: DW_TAG_imported_declaration, scope: !2, entity: !860, file: !744, line: 136)
!860 = !DISubprogram(name: "setvbuf", scope: !747, file: !747, line: 294, type: !861, isLocal: false, isDefinition: false, flags: DIFlagPrototyped, isOptimized: true)
!861 = !DISubroutineType(types: !862)
!862 = !{!11, !772, !236, !11, !118}
!863 = !DIImportedEntity(tag: DW_TAG_imported_declaration, scope: !2, entity: !864, file: !744, line: 137)
!864 = !DISubprogram(name: "sprintf", scope: !747, file: !747, line: 320, type: !865, isLocal: false, isDefinition: false, flags: DIFlagPrototyped, isOptimized: true)
!865 = !DISubroutineType(types: !866)
!866 = !{!11, !236, !166, null}
!867 = !DIImportedEntity(tag: DW_TAG_imported_declaration, scope: !2, entity: !868, file: !744, line: 138)
!868 = !DISubprogram(name: "sscanf", scope: !747, file: !747, line: 385, type: !869, isLocal: false, isDefinition: false, flags: DIFlagPrototyped, isOptimized: true)
!869 = !DISubroutineType(types: !870)
!870 = !{!11, !166, !166, null}
!871 = !DIImportedEntity(tag: DW_TAG_imported_declaration, scope: !2, entity: !872, file: !744, line: 139)
!872 = !DISubprogram(name: "tmpfile", scope: !747, file: !747, line: 159, type: !873, isLocal: false, isDefinition: false, flags: DIFlagPrototyped, isOptimized: true)
!873 = !DISubroutineType(types: !874)
!874 = !{!755}
!875 = !DIImportedEntity(tag: DW_TAG_imported_declaration, scope: !2, entity: !876, file: !744, line: 141)
!876 = !DISubprogram(name: "tmpnam", scope: !747, file: !747, line: 173, type: !877, isLocal: false, isDefinition: false, flags: DIFlagPrototyped, isOptimized: true)
!877 = !DISubroutineType(types: !878)
!878 = !{!78, !78}
!879 = !DIImportedEntity(tag: DW_TAG_imported_declaration, scope: !2, entity: !880, file: !744, line: 143)
!880 = !DISubprogram(name: "ungetc", scope: !747, file: !747, line: 639, type: !790, isLocal: false, isDefinition: false, flags: DIFlagPrototyped, isOptimized: true)
!881 = !DIImportedEntity(tag: DW_TAG_imported_declaration, scope: !2, entity: !882, file: !744, line: 144)
!882 = !DISubprogram(name: "vfprintf", scope: !777, file: !777, line: 124, type: !883, isLocal: false, isDefinition: false, flags: DIFlagPrototyped, isOptimized: true)
!883 = !DISubroutineType(types: !884)
!884 = !{!11, !772, !166, !209}
!885 = !DIImportedEntity(tag: DW_TAG_imported_declaration, scope: !2, entity: !886, file: !744, line: 145)
!886 = !DISubprogram(name: "vprintf", scope: !777, file: !777, line: 114, type: !887, isLocal: false, isDefinition: false, flags: DIFlagPrototyped, isOptimized: true)
!887 = !DISubroutineType(types: !888)
!888 = !{!11, !166, !209}
!889 = !DIImportedEntity(tag: DW_TAG_imported_declaration, scope: !2, entity: !890, file: !744, line: 146)
!890 = !DISubprogram(name: "vsprintf", scope: !777, file: !777, line: 43, type: !891, isLocal: false, isDefinition: false, flags: DIFlagPrototyped, isOptimized: true)
!891 = !DISubroutineType(types: !892)
!892 = !{!11, !236, !166, !209}
!893 = !DIImportedEntity(tag: DW_TAG_imported_declaration, scope: !350, entity: !894, file: !744, line: 175)
!894 = !DISubprogram(name: "snprintf", scope: !747, file: !747, line: 340, type: !895, isLocal: false, isDefinition: false, flags: DIFlagPrototyped, isOptimized: true)
!895 = !DISubroutineType(types: !896)
!896 = !{!11, !236, !118, !166, null}
!897 = !DIImportedEntity(tag: DW_TAG_imported_declaration, scope: !350, entity: !898, file: !744, line: 176)
!898 = !DISubprogram(name: "vfscanf", scope: !747, file: !747, line: 420, type: !883, isLocal: false, isDefinition: false, flags: DIFlagPrototyped, isOptimized: true)
!899 = !DIImportedEntity(tag: DW_TAG_imported_declaration, scope: !350, entity: !900, file: !744, line: 177)
!900 = !DISubprogram(name: "vscanf", scope: !747, file: !747, line: 428, type: !887, isLocal: false, isDefinition: false, flags: DIFlagPrototyped, isOptimized: true)
!901 = !DIImportedEntity(tag: DW_TAG_imported_declaration, scope: !350, entity: !902, file: !744, line: 178)
!902 = !DISubprogram(name: "vsnprintf", scope: !777, file: !777, line: 74, type: !903, isLocal: false, isDefinition: false, flags: DIFlagPrototyped, isOptimized: true)
!903 = !DISubroutineType(types: !904)
!904 = !{!11, !236, !118, !166, !209}
!905 = !DIImportedEntity(tag: DW_TAG_imported_declaration, scope: !350, entity: !906, file: !744, line: 179)
!906 = !DISubprogram(name: "vsscanf", scope: !747, file: !747, line: 432, type: !907, isLocal: false, isDefinition: false, flags: DIFlagPrototyped, isOptimized: true)
!907 = !DISubroutineType(types: !908)
!908 = !{!11, !166, !166, !209}
!909 = !DIImportedEntity(tag: DW_TAG_imported_declaration, scope: !2, entity: !894, file: !744, line: 185)
!910 = !DIImportedEntity(tag: DW_TAG_imported_declaration, scope: !2, entity: !898, file: !744, line: 186)
!911 = !DIImportedEntity(tag: DW_TAG_imported_declaration, scope: !2, entity: !900, file: !744, line: 187)
!912 = !DIImportedEntity(tag: DW_TAG_imported_declaration, scope: !2, entity: !902, file: !744, line: 188)
!913 = !DIImportedEntity(tag: DW_TAG_imported_declaration, scope: !2, entity: !906, file: !744, line: 189)
!914 = !DIImportedEntity(tag: DW_TAG_imported_declaration, scope: !2, entity: !915, file: !919, line: 82)
!915 = !DIDerivedType(tag: DW_TAG_typedef, name: "wctrans_t", file: !916, line: 48, baseType: !917)
!916 = !DIFile(filename: "/nix/store/8hagj3k5q9vkyxnrl8431r4kpn4gf46l-glibc-2.26-131-dev/include/wctype.h", directory: "/home/siddharthist/code/llvm-pretty-bc-parser/disasm-test/cpp")
!917 = !DIDerivedType(tag: DW_TAG_pointer_type, baseType: !918, size: 64)
!918 = !DIDerivedType(tag: DW_TAG_const_type, baseType: !448)
!919 = !DIFile(filename: "/nix/store/czxcii58v6d3yhrq9r667zw91192rcgk-gcc-7.3.0/include/c++/7.3.0/cwctype", directory: "/home/siddharthist/code/llvm-pretty-bc-parser/disasm-test/cpp")
!920 = !DIImportedEntity(tag: DW_TAG_imported_declaration, scope: !2, entity: !921, file: !919, line: 83)
!921 = !DIDerivedType(tag: DW_TAG_typedef, name: "wctype_t", file: !922, line: 38, baseType: !120)
!922 = !DIFile(filename: "/nix/store/8hagj3k5q9vkyxnrl8431r4kpn4gf46l-glibc-2.26-131-dev/include/bits/wctype-wchar.h", directory: "/home/siddharthist/code/llvm-pretty-bc-parser/disasm-test/cpp")
!923 = !DIImportedEntity(tag: DW_TAG_imported_declaration, scope: !2, entity: !59, file: !919, line: 84)
!924 = !DIImportedEntity(tag: DW_TAG_imported_declaration, scope: !2, entity: !925, file: !919, line: 86)
!925 = !DISubprogram(name: "iswalnum", scope: !922, file: !922, line: 95, type: !313, isLocal: false, isDefinition: false, flags: DIFlagPrototyped, isOptimized: true)
!926 = !DIImportedEntity(tag: DW_TAG_imported_declaration, scope: !2, entity: !927, file: !919, line: 87)
!927 = !DISubprogram(name: "iswalpha", scope: !922, file: !922, line: 101, type: !313, isLocal: false, isDefinition: false, flags: DIFlagPrototyped, isOptimized: true)
!928 = !DIImportedEntity(tag: DW_TAG_imported_declaration, scope: !2, entity: !929, file: !919, line: 89)
!929 = !DISubprogram(name: "iswblank", scope: !922, file: !922, line: 146, type: !313, isLocal: false, isDefinition: false, flags: DIFlagPrototyped, isOptimized: true)
!930 = !DIImportedEntity(tag: DW_TAG_imported_declaration, scope: !2, entity: !931, file: !919, line: 91)
!931 = !DISubprogram(name: "iswcntrl", scope: !922, file: !922, line: 104, type: !313, isLocal: false, isDefinition: false, flags: DIFlagPrototyped, isOptimized: true)
!932 = !DIImportedEntity(tag: DW_TAG_imported_declaration, scope: !2, entity: !933, file: !919, line: 92)
!933 = !DISubprogram(name: "iswctype", scope: !922, file: !922, line: 159, type: !934, isLocal: false, isDefinition: false, flags: DIFlagPrototyped, isOptimized: true)
!934 = !DISubroutineType(types: !935)
!935 = !{!11, !59, !921}
!936 = !DIImportedEntity(tag: DW_TAG_imported_declaration, scope: !2, entity: !937, file: !919, line: 93)
!937 = !DISubprogram(name: "iswdigit", scope: !922, file: !922, line: 108, type: !313, isLocal: false, isDefinition: false, flags: DIFlagPrototyped, isOptimized: true)
!938 = !DIImportedEntity(tag: DW_TAG_imported_declaration, scope: !2, entity: !939, file: !919, line: 94)
!939 = !DISubprogram(name: "iswgraph", scope: !922, file: !922, line: 112, type: !313, isLocal: false, isDefinition: false, flags: DIFlagPrototyped, isOptimized: true)
!940 = !DIImportedEntity(tag: DW_TAG_imported_declaration, scope: !2, entity: !941, file: !919, line: 95)
!941 = !DISubprogram(name: "iswlower", scope: !922, file: !922, line: 117, type: !313, isLocal: false, isDefinition: false, flags: DIFlagPrototyped, isOptimized: true)
!942 = !DIImportedEntity(tag: DW_TAG_imported_declaration, scope: !2, entity: !943, file: !919, line: 96)
!943 = !DISubprogram(name: "iswprint", scope: !922, file: !922, line: 120, type: !313, isLocal: false, isDefinition: false, flags: DIFlagPrototyped, isOptimized: true)
!944 = !DIImportedEntity(tag: DW_TAG_imported_declaration, scope: !2, entity: !945, file: !919, line: 97)
!945 = !DISubprogram(name: "iswpunct", scope: !922, file: !922, line: 125, type: !313, isLocal: false, isDefinition: false, flags: DIFlagPrototyped, isOptimized: true)
!946 = !DIImportedEntity(tag: DW_TAG_imported_declaration, scope: !2, entity: !947, file: !919, line: 98)
!947 = !DISubprogram(name: "iswspace", scope: !922, file: !922, line: 130, type: !313, isLocal: false, isDefinition: false, flags: DIFlagPrototyped, isOptimized: true)
!948 = !DIImportedEntity(tag: DW_TAG_imported_declaration, scope: !2, entity: !949, file: !919, line: 99)
!949 = !DISubprogram(name: "iswupper", scope: !922, file: !922, line: 135, type: !313, isLocal: false, isDefinition: false, flags: DIFlagPrototyped, isOptimized: true)
!950 = !DIImportedEntity(tag: DW_TAG_imported_declaration, scope: !2, entity: !951, file: !919, line: 100)
!951 = !DISubprogram(name: "iswxdigit", scope: !922, file: !922, line: 140, type: !313, isLocal: false, isDefinition: false, flags: DIFlagPrototyped, isOptimized: true)
!952 = !DIImportedEntity(tag: DW_TAG_imported_declaration, scope: !2, entity: !953, file: !919, line: 101)
!953 = !DISubprogram(name: "towctrans", scope: !916, file: !916, line: 55, type: !954, isLocal: false, isDefinition: false, flags: DIFlagPrototyped, isOptimized: true)
!954 = !DISubroutineType(types: !955)
!955 = !{!59, !59, !915}
!956 = !DIImportedEntity(tag: DW_TAG_imported_declaration, scope: !2, entity: !957, file: !919, line: 102)
!957 = !DISubprogram(name: "towlower", scope: !922, file: !922, line: 166, type: !958, isLocal: false, isDefinition: false, flags: DIFlagPrototyped, isOptimized: true)
!958 = !DISubroutineType(types: !959)
!959 = !{!59, !59}
!960 = !DIImportedEntity(tag: DW_TAG_imported_declaration, scope: !2, entity: !961, file: !919, line: 103)
!961 = !DISubprogram(name: "towupper", scope: !922, file: !922, line: 169, type: !958, isLocal: false, isDefinition: false, flags: DIFlagPrototyped, isOptimized: true)
!962 = !DIImportedEntity(tag: DW_TAG_imported_declaration, scope: !2, entity: !963, file: !919, line: 104)
!963 = !DISubprogram(name: "wctrans", scope: !916, file: !916, line: 52, type: !964, isLocal: false, isDefinition: false, flags: DIFlagPrototyped, isOptimized: true)
!964 = !DISubroutineType(types: !965)
!965 = !{!915, !167}
!966 = !DIImportedEntity(tag: DW_TAG_imported_declaration, scope: !2, entity: !967, file: !919, line: 105)
!967 = !DISubprogram(name: "wctype", scope: !922, file: !922, line: 155, type: !968, isLocal: false, isDefinition: false, flags: DIFlagPrototyped, isOptimized: true)
!968 = !DISubroutineType(types: !969)
!969 = !{!921, !167}
!970 = !{i32 2, !"Dwarf Version", i32 4}
!971 = !{i32 2, !"Debug Info Version", i32 3}
!972 = !{i32 1, !"wchar_size", i32 4}
!973 = !{i32 7, !"PIC Level", i32 2}
!974 = !{!"clang version 6.0.1 (tags/RELEASE_601/final)"}
!975 = distinct !DISubprogram(name: "main", scope: !20, file: !20, line: 4, type: !660, isLocal: false, isDefinition: true, scopeLine: 5, flags: DIFlagPrototyped, isOptimized: true, unit: !19, variables: !976)
!976 = !{}
!977 = !DILocalVariable(name: "__out", arg: 1, scope: !978, file: !979, line: 556, type: !982)
!978 = distinct !DISubprogram(name: "operator<<<std::char_traits<char> >", linkageName: "_ZStlsISt11char_traitsIcEERSt13basic_ostreamIcT_ES5_PKc", scope: !2, file: !979, line: 556, type: !980, isLocal: false, isDefinition: true, scopeLine: 557, flags: DIFlagPrototyped, isOptimized: true, unit: !19, templateParams: !987, variables: !985)
!979 = !DIFile(filename: "/nix/store/czxcii58v6d3yhrq9r667zw91192rcgk-gcc-7.3.0/include/c++/7.3.0/ostream", directory: "/home/siddharthist/code/llvm-pretty-bc-parser/disasm-test/cpp")
!980 = !DISubroutineType(types: !981)
!981 = !{!982, !982, !167}
!982 = !DIDerivedType(tag: DW_TAG_reference_type, baseType: !983, size: 64)
!983 = !DICompositeType(tag: DW_TAG_class_type, name: "basic_ostream<char, std::char_traits<char> >", scope: !2, file: !984, line: 359, flags: DIFlagFwdDecl, identifier: "_ZTSSo")
!984 = !DIFile(filename: "/nix/store/czxcii58v6d3yhrq9r667zw91192rcgk-gcc-7.3.0/include/c++/7.3.0/bits/ostream.tcc", directory: "/home/siddharthist/code/llvm-pretty-bc-parser/disasm-test/cpp")
!985 = !{!977, !986}
!986 = !DILocalVariable(name: "__s", arg: 2, scope: !978, file: !979, line: 556, type: !167)
!987 = !{!988}
!988 = !DITemplateTypeParameter(name: "_Traits", type: !989)
!989 = distinct !DICompositeType(tag: DW_TAG_structure_type, name: "char_traits<char>", scope: !2, file: !990, line: 275, size: 8, elements: !991, templateParams: !1039, identifier: "_ZTSSt11char_traitsIcE")
!990 = !DIFile(filename: "/nix/store/czxcii58v6d3yhrq9r667zw91192rcgk-gcc-7.3.0/include/c++/7.3.0/bits/char_traits.h", directory: "/home/siddharthist/code/llvm-pretty-bc-parser/disasm-test/cpp")
!991 = !{!992, !999, !1002, !1003, !1007, !1010, !1013, !1017, !1018, !1021, !1027, !1030, !1033, !1036}
!992 = !DISubprogram(name: "assign", linkageName: "_ZNSt11char_traitsIcE6assignERcRKc", scope: !989, file: !990, line: 284, type: !993, isLocal: false, isDefinition: false, scopeLine: 284, flags: DIFlagPrototyped | DIFlagStaticMember, isOptimized: true)
!993 = !DISubroutineType(types: !994)
!994 = !{null, !995, !997}
!995 = !DIDerivedType(tag: DW_TAG_reference_type, baseType: !996, size: 64)
!996 = !DIDerivedType(tag: DW_TAG_typedef, name: "char_type", scope: !989, file: !990, line: 277, baseType: !54)
!997 = !DIDerivedType(tag: DW_TAG_reference_type, baseType: !998, size: 64)
!998 = !DIDerivedType(tag: DW_TAG_const_type, baseType: !996)
!999 = !DISubprogram(name: "eq", linkageName: "_ZNSt11char_traitsIcE2eqERKcS2_", scope: !989, file: !990, line: 288, type: !1000, isLocal: false, isDefinition: false, scopeLine: 288, flags: DIFlagPrototyped | DIFlagStaticMember, isOptimized: true)
!1000 = !DISubroutineType(types: !1001)
!1001 = !{!13, !997, !997}
!1002 = !DISubprogram(name: "lt", linkageName: "_ZNSt11char_traitsIcE2ltERKcS2_", scope: !989, file: !990, line: 292, type: !1000, isLocal: false, isDefinition: false, scopeLine: 292, flags: DIFlagPrototyped | DIFlagStaticMember, isOptimized: true)
!1003 = !DISubprogram(name: "compare", linkageName: "_ZNSt11char_traitsIcE7compareEPKcS2_m", scope: !989, file: !990, line: 300, type: !1004, isLocal: false, isDefinition: false, scopeLine: 300, flags: DIFlagPrototyped | DIFlagStaticMember, isOptimized: true)
!1004 = !DISubroutineType(types: !1005)
!1005 = !{!11, !1006, !1006, !555}
!1006 = !DIDerivedType(tag: DW_TAG_pointer_type, baseType: !998, size: 64)
!1007 = !DISubprogram(name: "length", linkageName: "_ZNSt11char_traitsIcE6lengthEPKc", scope: !989, file: !990, line: 314, type: !1008, isLocal: false, isDefinition: false, scopeLine: 314, flags: DIFlagPrototyped | DIFlagStaticMember, isOptimized: true)
!1008 = !DISubroutineType(types: !1009)
!1009 = !{!555, !1006}
!1010 = !DISubprogram(name: "find", linkageName: "_ZNSt11char_traitsIcE4findEPKcmRS1_", scope: !989, file: !990, line: 324, type: !1011, isLocal: false, isDefinition: false, scopeLine: 324, flags: DIFlagPrototyped | DIFlagStaticMember, isOptimized: true)
!1011 = !DISubroutineType(types: !1012)
!1012 = !{!1006, !1006, !555, !997}
!1013 = !DISubprogram(name: "move", linkageName: "_ZNSt11char_traitsIcE4moveEPcPKcm", scope: !989, file: !990, line: 338, type: !1014, isLocal: false, isDefinition: false, scopeLine: 338, flags: DIFlagPrototyped | DIFlagStaticMember, isOptimized: true)
!1014 = !DISubroutineType(types: !1015)
!1015 = !{!1016, !1016, !1006, !555}
!1016 = !DIDerivedType(tag: DW_TAG_pointer_type, baseType: !996, size: 64)
!1017 = !DISubprogram(name: "copy", linkageName: "_ZNSt11char_traitsIcE4copyEPcPKcm", scope: !989, file: !990, line: 346, type: !1014, isLocal: false, isDefinition: false, scopeLine: 346, flags: DIFlagPrototyped | DIFlagStaticMember, isOptimized: true)
!1018 = !DISubprogram(name: "assign", linkageName: "_ZNSt11char_traitsIcE6assignEPcmc", scope: !989, file: !990, line: 354, type: !1019, isLocal: false, isDefinition: false, scopeLine: 354, flags: DIFlagPrototyped | DIFlagStaticMember, isOptimized: true)
!1019 = !DISubroutineType(types: !1020)
!1020 = !{!1016, !1016, !555, !996}
!1021 = !DISubprogram(name: "to_char_type", linkageName: "_ZNSt11char_traitsIcE12to_char_typeERKi", scope: !989, file: !990, line: 362, type: !1022, isLocal: false, isDefinition: false, scopeLine: 362, flags: DIFlagPrototyped | DIFlagStaticMember, isOptimized: true)
!1022 = !DISubroutineType(types: !1023)
!1023 = !{!996, !1024}
!1024 = !DIDerivedType(tag: DW_TAG_reference_type, baseType: !1025, size: 64)
!1025 = !DIDerivedType(tag: DW_TAG_const_type, baseType: !1026)
!1026 = !DIDerivedType(tag: DW_TAG_typedef, name: "int_type", scope: !989, file: !990, line: 278, baseType: !11)
!1027 = !DISubprogram(name: "to_int_type", linkageName: "_ZNSt11char_traitsIcE11to_int_typeERKc", scope: !989, file: !990, line: 368, type: !1028, isLocal: false, isDefinition: false, scopeLine: 368, flags: DIFlagPrototyped | DIFlagStaticMember, isOptimized: true)
!1028 = !DISubroutineType(types: !1029)
!1029 = !{!1026, !997}
!1030 = !DISubprogram(name: "eq_int_type", linkageName: "_ZNSt11char_traitsIcE11eq_int_typeERKiS2_", scope: !989, file: !990, line: 372, type: !1031, isLocal: false, isDefinition: false, scopeLine: 372, flags: DIFlagPrototyped | DIFlagStaticMember, isOptimized: true)
!1031 = !DISubroutineType(types: !1032)
!1032 = !{!13, !1024, !1024}
!1033 = !DISubprogram(name: "eof", linkageName: "_ZNSt11char_traitsIcE3eofEv", scope: !989, file: !990, line: 376, type: !1034, isLocal: false, isDefinition: false, scopeLine: 376, flags: DIFlagPrototyped | DIFlagStaticMember, isOptimized: true)
!1034 = !DISubroutineType(types: !1035)
!1035 = !{!1026}
!1036 = !DISubprogram(name: "not_eof", linkageName: "_ZNSt11char_traitsIcE7not_eofERKi", scope: !989, file: !990, line: 380, type: !1037, isLocal: false, isDefinition: false, scopeLine: 380, flags: DIFlagPrototyped | DIFlagStaticMember, isOptimized: true)
!1037 = !DISubroutineType(types: !1038)
!1038 = !{!1026, !1024}
!1039 = !{!1040}
!1040 = !DITemplateTypeParameter(name: "_CharT", type: !54)
!1041 = !DILocation(line: 556, column: 46, scope: !978, inlinedAt: !1042)
!1042 = distinct !DILocation(line: 6, column: 13, scope: !975)
!1043 = !DILocation(line: 556, column: 65, scope: !978, inlinedAt: !1042)
!1044 = !DILocation(line: 561, column: 2, scope: !1045, inlinedAt: !1042)
!1045 = distinct !DILexicalBlock(scope: !978, file: !979, line: 558, column: 11)
!1046 = !DILocation(line: 7, column: 3, scope: !975)
!1047 = distinct !DISubprogram(linkageName: "_GLOBAL__sub_I_iostream.cpp", scope: !20, file: !20, type: !1048, isLocal: true, isDefinition: true, flags: DIFlagArtificial, isOptimized: true, unit: !19, variables: !976)
!1048 = !DISubroutineType(types: !976)
!1049 = !DILocation(line: 74, column: 25, scope: !1050, inlinedAt: !1051)
!1050 = distinct !DISubprogram(name: "__cxx_global_var_init", scope: !3, file: !3, line: 74, type: !574, isLocal: true, isDefinition: true, scopeLine: 74, flags: DIFlagPrototyped, isOptimized: true, unit: !19, variables: !976)
!1051 = distinct !DILocation(line: 0, scope: !1047)
